; ModuleID = 'sssp_wln.new'
target datalayout = "e-p:64:64:64-i1:8:8-i8:8:8-i16:16:16-i32:32:32-i64:64:64-f32:32:32-f64:64:64-v64:64:64-v128:128:128-a0:0:64-s0:64:64-f80:128:128-n8:16:32:64-S128"
target triple = "x86_64-unknown-linux-gnu"

%"class.std::ios_base::Init" = type { i8 }
%struct.dim3 = type { i32, i32, i32 }
%struct._IO_FILE = type { i32, i8*, i8*, i8*, i8*, i8*, i8*, i8*, i8*, i8*, i8*, i8*, %struct._IO_marker*, %struct._IO_FILE*, i32, i32, i64, i16, i8, [1 x i8], i8*, i64, i8*, i8*, i8*, i8*, i64, i32, [20 x i8] }
%struct._IO_marker = type { %struct._IO_marker*, %struct._IO_FILE*, i32 }
%struct.sSMtoCores = type { i32, i32 }
%struct.Graph = type { i32, i32, i32, i32*, i32*, i32*, i32*, i32*, i32*, i32*, i32, i32*, i32*, i32, i8 }
%struct.KernelConfig = type { i32, i32, i32, i32, %struct.cudaDeviceProp }
%struct.cudaDeviceProp = type { [256 x i8], i64, i64, i32, i32, i64, i32, [3 x i32], [3 x i32], i32, i64, i32, i32, i64, i64, i32, i32, i32, i32, i32, i32, i32, i32, i32, [2 x i32], [2 x i32], [3 x i32], [2 x i32], [3 x i32], [3 x i32], i32, [2 x i32], [
%struct.List = type { i32*, i32, i32 }
%struct.ComponentSpace = type { i32, i32*, i32*, i32* }
%struct.Worklist = type { i32, i32*, i32*, i32*, i32*, i32 }
%struct.timezone = type { i32, i32 }
%struct.timeval = type { i64, i64 }
%"class.std::basic_ifstream" = type { %"class.std::basic_istream.base", %"class.std::basic_filebuf", %"class.std::basic_ios" }
%"class.std::basic_istream.base" = type { i32 (...)**, i64 }
%"class.std::basic_filebuf" = type { %"class.std::basic_streambuf", %union.pthread_mutex_t, %"class.std::__basic_file", i32, %struct.__mbstate_t, %struct.__mbstate_t, %struct.__mbstate_t, i8*, i64, i8, i8, i8, i8, i8*, i8*, i8, %"class.std::codecvt"*, i8
%"class.std::basic_streambuf" = type { i32 (...)**, i8*, i8*, i8*, i8*, i8*, i8*, %"class.std::locale" }
%"class.std::locale" = type { %"class.std::locale::_Impl"* }
%"class.std::locale::_Impl" = type { i32, %"class.std::locale::facet"**, i64, %"class.std::locale::facet"**, i8** }
%"class.std::locale::facet" = type { i32 (...)**, i32 }
%union.pthread_mutex_t = type { %"struct.<anonymous union>::__pthread_mutex_s" }
%"struct.<anonymous union>::__pthread_mutex_s" = type { i32, i32, i32, i32, i32, i16, i16, %struct.__pthread_internal_list }
%struct.__pthread_internal_list = type { %struct.__pthread_internal_list*, %struct.__pthread_internal_list* }
%"class.std::__basic_file" = type { %struct._IO_FILE*, i8 }
%struct.__mbstate_t = type { i32, %union.anon }
%union.anon = type { i32 }
%"class.std::codecvt" = type { %"class.std::__codecvt_abstract_base", %struct.__locale_struct* }
%"class.std::__codecvt_abstract_base" = type { %"class.std::locale::facet" }
%struct.__locale_struct = type { [13 x %struct.__locale_data*], i16*, i32*, i32*, [13 x i8*] }
%struct.__locale_data = type opaque
%"class.std::basic_ios" = type { %"class.std::ios_base", %"class.std::basic_ostream"*, i8, i8, %"class.std::basic_streambuf"*, %"class.std::ctype"*, %"class.std::num_put"*, %"class.std::num_get"* }
%"class.std::ios_base" = type { i32 (...)**, i64, i64, i32, i32, i32, %"struct.std::ios_base::_Callback_list"*, %"struct.std::ios_base::_Words", [8 x %"struct.std::ios_base::_Words"], i32, %"struct.std::ios_base::_Words"*, %"class.std::locale" }
%"struct.std::ios_base::_Callback_list" = type { %"struct.std::ios_base::_Callback_list"*, void (i32, %"class.std::ios_base"*, i32)*, i32, i32 }
%"struct.std::ios_base::_Words" = type { i8*, i64 }
%"class.std::basic_ostream" = type { i32 (...)**, %"class.std::basic_ios" }
%"class.std::ctype" = type { %"class.std::locale::facet", %struct.__locale_struct*, i8, i32*, i32*, i16*, i8, [256 x i8], [256 x i8], i8 }
%"class.std::num_put" = type { %"class.std::locale::facet" }
%"class.std::num_get" = type { %"class.std::locale::facet" }
%"class.std::basic_string" = type { %"struct.std::basic_string<char, std::char_traits<char>, std::allocator<char> >::_Alloc_hider" }
%"struct.std::basic_string<char, std::char_traits<char>, std::allocator<char> >::_Alloc_hider" = type { i8* }
%"class.std::basic_istream" = type { i32 (...)**, i64, %"class.std::basic_ios" }
%struct.stat = type { i64, i64, i64, i32, i32, i32, i32, i64, i64, i64, i64, %struct.timespec, %struct.timespec, %struct.timespec, [3 x i64] }
%struct.timespec = type { i64, i64 }
%struct.cudaChannelFormatDesc = type { i32, i32, i32, i32, i32 }
%struct.cudaExtent = type { i64, i64, i64 }
%struct.cudaArray = type opaque
%struct.cudaPitchedPtr = type { i8*, i64, i64, i64 }
%struct.CUstream_st = type opaque
%struct.cudaMemcpy3DParms = type { %struct.cudaArray*, %struct.cudaPos, %struct.cudaPitchedPtr, %struct.cudaArray*, %struct.cudaPos, %struct.cudaPitchedPtr, %struct.cudaExtent, i32 }
%struct.cudaPos = type { i64, i64, i64 }
%struct.cudaMemcpy3DPeerParms = type { %struct.cudaArray*, %struct.cudaPos, %struct.cudaPitchedPtr, i32, %struct.cudaArray*, %struct.cudaPos, %struct.cudaPitchedPtr, i32, %struct.cudaExtent }
%struct.cudaFuncAttributes = type { i64, i64, i64, i32, i32, i32, i32 }
%struct.cudaIpcEventHandle_st = type { [64 x i8] }
%struct.CUevent_st = type opaque
%struct.cudaIpcMemHandle_st = type { [64 x i8] }

@_ZStL8__ioinit = internal global %"class.std::ios_base::Init" zeroinitializer, align 1
@__dso_handle = external global i8
@.str = private unnamed_addr constant [35 x i8] c"Error return from gettimeofday: %d\00", align 1
@threadIdx = external global %struct.dim3
@blockDim = external global %struct.dim3
@gridDim = external global %struct.dim3
@blockIdx = external global %struct.dim3
@.str1 = private unnamed_addr constant [53 x i8] c"Error: %s(%d): thread %d, node %d out of bounds %d.\0A\00", align 1
@.str2 = private unnamed_addr constant [25 x i8] c"../../../include/graph.h\00", align 1
@.str3 = private unnamed_addr constant [62 x i8] c"Error: %s(%d): thread %d, node %d: edge %d out of bounds %d.\0A\00", align 1
@.str4 = private unnamed_addr constant [53 x i8] c"Error: %s(%d): thread %d, edge %d out of bounds %d.\0A\00", align 1
@.str5 = private unnamed_addr constant [7 x i8] c"%d %d\0A\00", align 1
@.str6 = private unnamed_addr constant [10 x i8] c"%d %d %d\0A\00", align 1
@.str7 = private unnamed_addr constant [36 x i8] c"Error: nedges=%d, edgescounted=%d.\0A\00", align 1
@.str8 = private unnamed_addr constant [30 x i8] c"allocating edgessrcdst failed\00", align 1
@.str9 = private unnamed_addr constant [29 x i8] c"allocating edgessrcwt failed\00", align 1
@.str10 = private unnamed_addr constant [23 x i8] c"allocating psrc failed\00", align 1
@.str11 = private unnamed_addr constant [28 x i8] c"allocating noutgoing failed\00", align 1
@.str12 = private unnamed_addr constant [28 x i8] c"allocating nincoming failed\00", align 1
@.str13 = private unnamed_addr constant [25 x i8] c"allocating srcsrc failed\00", align 1
@.str14 = private unnamed_addr constant [31 x i8] c"allocating maxOutDegree failed\00", align 1
@.str15 = private unnamed_addr constant [30 x i8] c"allocating maxInDegree failed\00", align 1
@.str16 = private unnamed_addr constant [18 x i8] c"dealloc on host.\0A\00", align 1
@.str17 = private unnamed_addr constant [20 x i8] c"dealloc on device.\0A\00", align 1
@.str18 = private unnamed_addr constant [8 x i8] c"\09%3d%%\0D\00", align 1
@stdout = external global %struct._IO_FILE*
@.str19 = private unnamed_addr constant [6 x i8] c"%d %d\00", align 1
@.str20 = private unnamed_addr constant [9 x i8] c"%d %d %d\00", align 1
@.str21 = private unnamed_addr constant [50 x i8] c"FileGraph::structureFromFile: unable to open %s.\0A\00", align 1
@.str22 = private unnamed_addr constant [50 x i8] c"FileGraph::structureFromFile: unable to stat %s.\0A\00", align 1
@.str23 = private unnamed_addr constant [22 x i8] c"masterLength: % llu \0A\00", align 1
@.str24 = private unnamed_addr constant [3 x i8] c"rb\00", align 1
@.str25 = private unnamed_addr constant [13 x i8] c"version == 1\00", align 1
@__PRETTY_FUNCTION__._ZN5Graph10readFromGREPc = private unnamed_addr constant [39 x i8] c"unsigned int Graph::readFromGR(char *)\00", align 1
@.str26 = private unnamed_addr constant [27 x i8] c"numNodes=%d, numEdges=%d.\0A\00", align 1
@.str27 = private unnamed_addr constant [23 x i8] c"nnodes=%d, nedges=%d.\0A\00", align 1
@.str28 = private unnamed_addr constant [46 x i8] c"\09invalid edge from %d to %d at index %d(%d).\0A\00", align 1
@.str29 = private unnamed_addr constant [42 x i8] c"read %lld bytes in %0.2f ms (%0.2f MB/s)\0A\00", align 1
@.str30 = private unnamed_addr constant [7 x i8] c".edges\00", align 1
@.str31 = private unnamed_addr constant [4 x i8] c".gr\00", align 1
@.str32 = private unnamed_addr constant [25 x i8] c"nnodes: %d, nedges: %d \0A\00", align 1
@.str33 = private unnamed_addr constant [31 x i8] c"\09%s(%d): dst %d >= nnodes %d.\0A\00", align 1
@_ZZN5Graph13printStats1x1EvE6prefix = private unnamed_addr constant [2 x i8] c"\09\00", align 1
@.str34 = private unnamed_addr constant [28 x i8] c"%snnodes             = %d.\0A\00", align 1
@.str35 = private unnamed_addr constant [28 x i8] c"%snedges             = %d.\0A\00", align 1
@.str36 = private unnamed_addr constant [34 x i8] c"%savg, max outdegree = %.2f, %d.\0A\00", align 1
@.str37 = private unnamed_addr constant [34 x i8] c"%savg, max indegree  = %.2f, %d.\0A\00", align 1
@.str38 = private unnamed_addr constant [28 x i8] c"%sdiameter           = %d.\0A\00", align 1
@.str39 = private unnamed_addr constant [25 x i8] c"allocating levels failed\00", align 1
@.str40 = private unnamed_addr constant [16 x i8] c"print1x1 failed\00", align 1
@.str41 = private unnamed_addr constant [19 x i8] c"dinitlevels failed\00", align 1
@.str42 = private unnamed_addr constant [26 x i8] c"allocating changed failed\00", align 1
@.str43 = private unnamed_addr constant [47 x i8] c"\09not computing levels, diameter will be zero.\0A\00", align 1
@.str44 = private unnamed_addr constant [19 x i8] c"dprintstats failed\00", align 1
@.str45 = private unnamed_addr constant [26 x i8] c"cudaGetDeviceCount failed\00", align 1
@stderr = external global %struct._IO_FILE*
@.str46 = private unnamed_addr constant [31 x i8] c"No CUDA capable devices found.\00", align 1
@.str47 = private unnamed_addr constant [80 x i8] c"Found %d devices, using device %d (%s), compute capability %d.%d, cores %d*%d.\0A\00", align 1
@.str48 = private unnamed_addr constant [16 x i8] c"blocksize = 0.\0A\00", align 1
@.str49 = private unnamed_addr constant [69 x i8] c"%s(%d): thread %d: Error: malloc of %d unsigned returned no memory.\0A\00", align 1
@.str50 = private unnamed_addr constant [24 x i8] c"../../../include/list.h\00", align 1
@.str51 = private unnamed_addr constant [57 x i8] c"%s(%d): thread %d: Error: buffer overflow, capacity=%d.\0A\00", align 1
@_ZZN14ComponentSpace12dump_to_fileEPKcE1f = internal global %struct._IO_FILE* null, align 8
@_ZZN14ComponentSpace12dump_to_fileEPKcE3mem = internal global i32* null, align 8
@.str52 = private unnamed_addr constant [2 x i8] c"w\00", align 1
@.str53 = private unnamed_addr constant [95 x i8] c"cudaMemcpy(mem, ele2comp, nelements * sizeof(unsigned), cudaMemcpyDeviceToHost) == cudaSuccess\00", align 1
@.str54 = private unnamed_addr constant [29 x i8] c"../../../include/component.h\00", align 1
@__PRETTY_FUNCTION__._ZN14ComponentSpace12dump_to_fileEPKc = private unnamed_addr constant [48 x i8] c"void ComponentSpace::dump_to_file(const char *)\00", align 1
@.str55 = private unnamed_addr constant [2 x i8] c"\0A\00", align 1
@.str56 = private unnamed_addr constant [90 x i8] c"cudaMemcpy(two.ncomponents, ncomponents, sizeof(unsigned), cudaMemcpyDeviceToDevice) == 0\00", align 1
@__PRETTY_FUNCTION__._ZN14ComponentSpace4copyERS_ = private unnamed_addr constant [44 x i8] c"void ComponentSpace::copy(ComponentSpace &)\00", align 1
@.str57 = private unnamed_addr constant [96 x i8] c"cudaMemcpy(two.ele2comp, ele2comp, sizeof(unsigned) * nelements, cudaMemcpyDeviceToDevice) == 0\00", align 1
@.str58 = private unnamed_addr constant [94 x i8] c"cudaMemcpy(two.complen, complen, sizeof(unsigned) * nelements, cudaMemcpyDeviceToDevice) == 0\00", align 1
@.str59 = private unnamed_addr constant [21 x i8] c"\09\09-----------------\0A\00", align 1
@.str60 = private unnamed_addr constant [12 x i8] c"\09\09%d -> %d\0A\00", align 1
@.str61 = private unnamed_addr constant [19 x i8] c"cs.print1x1 failed\00", align 1
@.str62 = private unnamed_addr constant [30 x i8] c"allocating ncomponents failed\00", align 1
@.str63 = private unnamed_addr constant [26 x i8] c"allocating complen failed\00", align 1
@.str64 = private unnamed_addr constant [27 x i8] c"allocating ele2comp failed\00", align 1
@.str65 = private unnamed_addr constant [15 x i8] c"dinitcs failed\00", align 1
@.str66 = private unnamed_addr constant [31 x i8] c"%s(%d): Allocating %d failed.\0A\00", align 1
@.str67 = private unnamed_addr constant [28 x i8] c"../../../include/worklist.h\00", align 1
@.str68 = private unnamed_addr constant [23 x i8] c"\09NOTICE: hstart = %d.\0A\00", align 1
@.str69 = private unnamed_addr constant [61 x i8] c"%s(%d): buffer overflow, setting size=%d, when capacity=%d.\0A\00", align 1
@.str70 = private unnamed_addr constant [31 x i8] c"\09worklist capacity set to %d.\0A\00", align 1
@.str71 = private unnamed_addr constant [75 x i8] c"%s(%d): thread %d: buffer overflow, extracting %d when buffer size is %d.\0A\00", align 1
@_ZZ8compress8WorklistjjE5shmem = internal global [12288 x i32] zeroinitializer, section "__shared__", align 16
@.str72 = private unnamed_addr constant [16 x i8] c"compress failed\00", align 1
@.str73 = private unnamed_addr constant [2 x i8] c"\09\00", align 1
@.str74 = private unnamed_addr constant [4 x i8] c"%d,\00", align 1
@.str75 = private unnamed_addr constant [21 x i8] c"printWorklist failed\00", align 1
@.str76 = private unnamed_addr constant [22 x i8] c"appendWorklist failed\00", align 1
@NVERTICES = global i32 0, align 4
@.str77 = private unnamed_addr constant [23 x i8] c"allocating nerr failed\00", align 1
@.str78 = private unnamed_addr constant [10 x i8] c"solving.\0A\00", align 1
@.str79 = private unnamed_addr constant [42 x i8] c"Cuda error in file '%s' in line %i : %s.\0A\00", align 1
@.str80 = private unnamed_addr constant [19 x i8] c"./sssp_worklistn.h\00", align 1
@.str81 = private unnamed_addr constant [17 x i8] c"solving failed \0A\00", align 1
@.str82 = private unnamed_addr constant [6 x i8] c"abc \0A\00", align 1
@.str83 = private unnamed_addr constant [19 x i8] c"\09iterations = %d.\0A\00", align 1
@.str84 = private unnamed_addr constant [24 x i8] c"\09runtime [%s] = %f ms.\0A\00", align 1
@.str85 = private unnamed_addr constant [10 x i8] c"worklistN\00", align 1
@.str86 = private unnamed_addr constant [9 x i8] c"main.cpp\00", align 1
@.str87 = private unnamed_addr constant [22 x i8] c"Writing output to %s\0A\00", align 1
@.str88 = private unnamed_addr constant [8 x i8] c"%d: %d\0A\00", align 1
@.str89 = private unnamed_addr constant [15 x i8] c"cycle-undir.gr\00", align 1
@.str90 = private unnamed_addr constant [23 x i8] c"allocating dist failed\00", align 1
@.str91 = private unnamed_addr constant [15 x i8] c"initializing.\0A\00", align 1
@.str92 = private unnamed_addr constant [20 x i8] c"initializing failed\00", align 1
@.str93 = private unnamed_addr constant [12 x i8] c"verifying.\0A\00", align 1
@.str94 = private unnamed_addr constant [23 x i8] c"dverifysolution failed\00", align 1
@.str95 = private unnamed_addr constant [21 x i8] c"\09no of errors = %d.\0A\00", align 1
@_ZZ18ConvertSMVer2CoresiiE18nGpuArchCoresPerSM = private unnamed_addr constant [9 x %struct.sSMtoCores] [%struct.sSMtoCores { i32 16, i32 8 }, %struct.sSMtoCores { i32 17, i32 8 }, %struct.sSMtoCores { i32 18, i32 8 }, %struct.sSMtoCores { i32 19, i32 8
@.str96 = private unnamed_addr constant [71 x i8] c"MapSMtoCores SM %d.%d is undefined (please update to the latest SDK)!\0A\00", align 1
@.str97 = private unnamed_addr constant [8 x i8] c"%s: %d\0A\00", align 1
@.str98 = private unnamed_addr constant [4 x i8] c"%s\0A\00", align 1
@llvm.global_ctors = appending global [1 x { i32, void ()* }] [{ i32, void ()* } { i32 65535, void ()* @_GLOBAL__I_a }]
@.str99 = private unnamed_addr constant [65 x i8] c"/home/sawaya/Gklee/Gklee/runtime/Intrinsic/klee_div_zero_check.c\00", align 1
@.str1100 = private unnamed_addr constant [15 x i8] c"divide by zero\00", align 1
@.str2101 = private unnamed_addr constant [8 x i8] c"div.err\00", align 1
@.str1118 = private unnamed_addr constant [11 x i8] c"GPU device\00", align 1
@cudaGetErrorString.tmp = private unnamed_addr constant [20 x i8] c"No Error Message\00\00\00\00", align 16
@msg = internal global [25 x i8] zeroinitializer, align 16

@_ZN5GraphC1Ev = alias void (%struct.Graph*)* @_ZN5GraphC2Ev
@_ZN5GraphD1Ev = alias void (%struct.Graph*)* @_ZN5GraphD2Ev
@_ZN12KernelConfigC1Ej = alias void (%struct.KernelConfig*, i32)* @_ZN12KernelConfigC2Ej
@_ZN4ListC1Ej = alias void (%struct.List*, i32)* @_ZN4ListC2Ej
@_ZN14ComponentSpaceC1Ej = alias void (%struct.ComponentSpace*, i32)* @_ZN14ComponentSpaceC2Ej
@_ZN8WorklistC1Ev = alias void (%struct.Worklist*)* @_ZN8WorklistC2Ev
@_ZN8WorklistD1Ev = alias void (%struct.Worklist*)* @_ZN8WorklistD2Ev

declare void @_ZNSt8ios_base4InitC1Ev(%"class.std::ios_base::Init"*)

declare void @_ZNSt8ios_base4InitD1Ev(%"class.std::ios_base::Init"*)

declare i32 @__cxa_atexit(void (i8*)*, i8*, i8*) nounwind

define double @_Z7rtclockv() uwtable {
entry:
  %Tzp = alloca %struct.timezone, align 4
  %Tp = alloca %struct.timeval, align 8
  %stat = alloca i32, align 4
  %call = call i32 @gettimeofday(%struct.timeval* %Tp, %struct.timezone* %Tzp) nounwind, !dbg !2635
  store i32 %call, i32* %stat, align 4, !dbg !2635
  %0 = load i32* %stat, align 4, !dbg !2637
  %cmp = icmp ne i32 %0, 0, !dbg !2637
  br i1 %cmp, label %if.then, label %if.end, !dbg !2637

if.then:                                          ; preds = %entry
  %1 = load i32* %stat, align 4, !dbg !2637
  %call1 = call i32 (i8*, ...)* @printf(i8* getelementptr inbounds ([35 x i8]* @.str, i32 0, i32 0), i32 %1), !dbg !2637
  br label %if.end, !dbg !2637

if.end:                                           ; preds = %if.then, %entry
  %tv_sec = getelementptr inbounds %struct.timeval* %Tp, i32 0, i32 0, !dbg !2638
  %2 = load i64* %tv_sec, align 8, !dbg !2638
  %conv = sitofp i64 %2 to double, !dbg !2638
  %tv_usec = getelementptr inbounds %struct.timeval* %Tp, i32 0, i32 1, !dbg !2638
  %3 = load i64* %tv_usec, align 8, !dbg !2638
  %conv2 = sitofp i64 %3 to double, !dbg !2638
  %mul = fmul double %conv2, 1.000000e-06, !dbg !2638
  %add = fadd double %conv, %mul, !dbg !2638
  ret double %add, !dbg !2638
}

declare void @llvm.dbg.declare(metadata, metadata) nounwind readnone

declare i32 @gettimeofday(%struct.timeval*, %struct.timezone*) nounwind

declare i32 @printf(i8*, ...)

define void @_Z11global_syncjPVjS0_(i32 %goalVal, i32* %Arrayin, i32* %Arrayout) uwtable section "__device__" {
entry:
  %goalVal.addr = alloca i32, align 4
  %Arrayin.addr = alloca i32*, align 8
  %Arrayout.addr = alloca i32*, align 8
  %tid_in_blk = alloca i32, align 4
  %nBlockNum = alloca i32, align 4
  %bid = alloca i32, align 4
  store i32 %goalVal, i32* %goalVal.addr, align 4
  store i32* %Arrayin, i32** %Arrayin.addr, align 8
  store i32* %Arrayout, i32** %Arrayout.addr, align 8
  %0 = load i32* getelementptr inbounds (%struct.dim3* @threadIdx, i32 0, i32 0), align 4, !dbg !2639
  %1 = load i32* getelementptr inbounds (%struct.dim3* @blockDim, i32 0, i32 1), align 4, !dbg !2639
  %mul = mul i32 %0, %1, !dbg !2639
  %2 = load i32* getelementptr inbounds (%struct.dim3* @threadIdx, i32 0, i32 1), align 4, !dbg !2639
  %add = add i32 %mul, %2, !dbg !2639
  store i32 %add, i32* %tid_in_blk, align 4, !dbg !2639
  %3 = load i32* getelementptr inbounds (%struct.dim3* @gridDim, i32 0, i32 0), align 4, !dbg !2641
  %4 = load i32* getelementptr inbounds (%struct.dim3* @gridDim, i32 0, i32 1), align 4, !dbg !2641
  %mul1 = mul i32 %3, %4, !dbg !2641
  store i32 %mul1, i32* %nBlockNum, align 4, !dbg !2641
  %5 = load i32* getelementptr inbounds (%struct.dim3* @blockIdx, i32 0, i32 0), align 4, !dbg !2642
  %6 = load i32* getelementptr inbounds (%struct.dim3* @gridDim, i32 0, i32 1), align 4, !dbg !2642
  %mul2 = mul i32 %5, %6, !dbg !2642
  %7 = load i32* getelementptr inbounds (%struct.dim3* @blockIdx, i32 0, i32 1), align 4, !dbg !2642
  %add3 = add i32 %mul2, %7, !dbg !2642
  store i32 %add3, i32* %bid, align 4, !dbg !2642
  %8 = load i32* %tid_in_blk, align 4, !dbg !2643
  %cmp = icmp eq i32 %8, 0, !dbg !2643
  br i1 %cmp, label %if.then, label %if.end, !dbg !2643

if.then:                                          ; preds = %entry
  %9 = load i32* %goalVal.addr, align 4, !dbg !2644
  %10 = load i32* %bid, align 4, !dbg !2644
  %idxprom = zext i32 %10 to i64, !dbg !2644
  %11 = load i32** %Arrayin.addr, align 8, !dbg !2644
  %arrayidx = getelementptr inbounds i32* %11, i64 %idxprom, !dbg !2644
  store volatile i32 %9, i32* %arrayidx, align 4, !dbg !2644
  call void @__threadfence(), !dbg !2646
  br label %if.end, !dbg !2647

if.end:                                           ; preds = %if.then, %entry
  %12 = load i32* %bid, align 4, !dbg !2648
  %cmp4 = icmp eq i32 %12, 0, !dbg !2648
  br i1 %cmp4, label %if.then5, label %if.end17, !dbg !2648

if.then5:                                         ; preds = %if.end
  %13 = load i32* %tid_in_blk, align 4, !dbg !2649
  %14 = load i32* %nBlockNum, align 4, !dbg !2649
  %cmp6 = icmp ult i32 %13, %14, !dbg !2649
  br i1 %cmp6, label %while.cond, label %if.end11, !dbg !2649

while.cond:                                       ; preds = %while.cond, %if.then5
  %15 = load i32* %tid_in_blk, align 4, !dbg !2651
  %idxprom8 = zext i32 %15 to i64, !dbg !2651
  %16 = load i32** %Arrayin.addr, align 8, !dbg !2651
  %arrayidx9 = getelementptr inbounds i32* %16, i64 %idxprom8, !dbg !2651
  %17 = load volatile i32* %arrayidx9, align 4, !dbg !2651
  %18 = load i32* %goalVal.addr, align 4, !dbg !2651
  %cmp10 = icmp ne i32 %17, %18, !dbg !2651
  br i1 %cmp10, label %while.cond, label %if.end11, !dbg !2651

if.end11:                                         ; preds = %while.cond, %if.then5
  call void @__syncthreads(), !dbg !2653
  %19 = load i32* %tid_in_blk, align 4, !dbg !2654
  %20 = load i32* %nBlockNum, align 4, !dbg !2654
  %cmp12 = icmp ult i32 %19, %20, !dbg !2654
  br i1 %cmp12, label %if.then13, label %if.end17, !dbg !2654

if.then13:                                        ; preds = %if.end11
  %21 = load i32* %goalVal.addr, align 4, !dbg !2655
  %22 = load i32* %tid_in_blk, align 4, !dbg !2655
  %idxprom14 = zext i32 %22 to i64, !dbg !2655
  %23 = load i32** %Arrayout.addr, align 8, !dbg !2655
  %arrayidx15 = getelementptr inbounds i32* %23, i64 %idxprom14, !dbg !2655
  store volatile i32 %21, i32* %arrayidx15, align 4, !dbg !2655
  call void @__threadfence(), !dbg !2657
  br label %if.end17, !dbg !2658

if.end17:                                         ; preds = %if.end11, %if.then13, %if.end
  %24 = load i32* %tid_in_blk, align 4, !dbg !2659
  %cmp18 = icmp eq i32 %24, 0, !dbg !2659
  br i1 %cmp18, label %while.cond20, label %if.end26, !dbg !2659

while.cond20:                                     ; preds = %while.cond20, %if.end17
  %25 = load i32* %bid, align 4, !dbg !2660
  %idxprom21 = zext i32 %25 to i64, !dbg !2660
  %26 = load i32** %Arrayout.addr, align 8, !dbg !2660
  %arrayidx22 = getelementptr inbounds i32* %26, i64 %idxprom21, !dbg !2660
  %27 = load volatile i32* %arrayidx22, align 4, !dbg !2660
  %28 = load i32* %goalVal.addr, align 4, !dbg !2660
  %cmp23 = icmp ne i32 %27, %28, !dbg !2660
  br i1 %cmp23, label %while.cond20, label %if.end26, !dbg !2660

if.end26:                                         ; preds = %while.cond20, %if.end17
  call void @__syncthreads(), !dbg !2662
  ret void, !dbg !2663
}

declare void @__threadfence() section "__device__"

declare void @__syncthreads() section "__device__"

define i32 @_ZN5Graph12getOutDegreeEj(%struct.Graph* %this, i32 %src) uwtable section "__device__" align 2 {
entry:
  %retval = alloca i32, align 4
  %this.addr = alloca %struct.Graph*, align 8
  %src.addr = alloca i32, align 4
  %id = alloca i32, align 4
  store %struct.Graph* %this, %struct.Graph** %this.addr, align 8
  store i32 %src, i32* %src.addr, align 4
  %this1 = load %struct.Graph** %this.addr
  %0 = load i32* %src.addr, align 4, !dbg !2664
  %nnodes = getelementptr inbounds %struct.Graph* %this1, i32 0, i32 1, !dbg !2664
  %1 = load i32* %nnodes, align 4, !dbg !2664
  %cmp = icmp ult i32 %0, %1, !dbg !2664
  br i1 %cmp, label %if.then, label %if.end, !dbg !2664

if.then:                                          ; preds = %entry
  %2 = load i32* %src.addr, align 4, !dbg !2666
  %idxprom = zext i32 %2 to i64, !dbg !2666
  %noutgoing = getelementptr inbounds %struct.Graph* %this1, i32 0, i32 3, !dbg !2666
  %3 = load i32** %noutgoing, align 8, !dbg !2666
  %arrayidx = getelementptr inbounds i32* %3, i64 %idxprom, !dbg !2666
  %4 = load i32* %arrayidx, align 4, !dbg !2666
  store i32 %4, i32* %retval, !dbg !2666
  br label %return, !dbg !2666

if.end:                                           ; preds = %entry
  %5 = load i32* getelementptr inbounds (%struct.dim3* @blockIdx, i32 0, i32 0), align 4, !dbg !2668
  %6 = load i32* getelementptr inbounds (%struct.dim3* @blockDim, i32 0, i32 0), align 4, !dbg !2668
  %mul = mul i32 %5, %6, !dbg !2668
  %7 = load i32* getelementptr inbounds (%struct.dim3* @threadIdx, i32 0, i32 0), align 4, !dbg !2668
  %add = add i32 %mul, %7, !dbg !2668
  store i32 %add, i32* %id, align 4, !dbg !2668
  %8 = load i32* %id, align 4, !dbg !2669
  %9 = load i32* %src.addr, align 4, !dbg !2669
  %nnodes2 = getelementptr inbounds %struct.Graph* %this1, i32 0, i32 1, !dbg !2669
  %10 = load i32* %nnodes2, align 4, !dbg !2669
  %call = call i32 (i8*, ...)* @printf(i8* getelementptr inbounds ([53 x i8]* @.str1, i32 0, i32 0), i8* getelementptr inbounds ([25 x i8]* @.str2, i32 0, i32 0), i32 72, i32 %8, i32 %9, i32 %10), !dbg !2669
  store i32 0, i32* %retval, !dbg !2670
  br label %return, !dbg !2670

return:                                           ; preds = %if.end, %if.then
  %11 = load i32* %retval, !dbg !2671
  ret i32 %11, !dbg !2671
}

define i32 @_ZN5Graph11getInDegreeEj(%struct.Graph* %this, i32 %dst) uwtable section "__device__" align 2 {
entry:
  %retval = alloca i32, align 4
  %this.addr = alloca %struct.Graph*, align 8
  %dst.addr = alloca i32, align 4
  %id = alloca i32, align 4
  store %struct.Graph* %this, %struct.Graph** %this.addr, align 8
  store i32 %dst, i32* %dst.addr, align 4
  %this1 = load %struct.Graph** %this.addr
  %0 = load i32* %dst.addr, align 4, !dbg !2672
  %nnodes = getelementptr inbounds %struct.Graph* %this1, i32 0, i32 1, !dbg !2672
  %1 = load i32* %nnodes, align 4, !dbg !2672
  %cmp = icmp ult i32 %0, %1, !dbg !2672
  br i1 %cmp, label %if.then, label %if.end, !dbg !2672

if.then:                                          ; preds = %entry
  %2 = load i32* %dst.addr, align 4, !dbg !2674
  %idxprom = zext i32 %2 to i64, !dbg !2674
  %nincoming = getelementptr inbounds %struct.Graph* %this1, i32 0, i32 4, !dbg !2674
  %3 = load i32** %nincoming, align 8, !dbg !2674
  %arrayidx = getelementptr inbounds i32* %3, i64 %idxprom, !dbg !2674
  %4 = load i32* %arrayidx, align 4, !dbg !2674
  store i32 %4, i32* %retval, !dbg !2674
  br label %return, !dbg !2674

if.end:                                           ; preds = %entry
  %5 = load i32* getelementptr inbounds (%struct.dim3* @blockIdx, i32 0, i32 0), align 4, !dbg !2676
  %6 = load i32* getelementptr inbounds (%struct.dim3* @blockDim, i32 0, i32 0), align 4, !dbg !2676
  %mul = mul i32 %5, %6, !dbg !2676
  %7 = load i32* getelementptr inbounds (%struct.dim3* @threadIdx, i32 0, i32 0), align 4, !dbg !2676
  %add = add i32 %mul, %7, !dbg !2676
  store i32 %add, i32* %id, align 4, !dbg !2676
  %8 = load i32* %id, align 4, !dbg !2677
  %9 = load i32* %dst.addr, align 4, !dbg !2677
  %nnodes2 = getelementptr inbounds %struct.Graph* %this1, i32 0, i32 1, !dbg !2677
  %10 = load i32* %nnodes2, align 4, !dbg !2677
  %call = call i32 (i8*, ...)* @printf(i8* getelementptr inbounds ([53 x i8]* @.str1, i32 0, i32 0), i8* getelementptr inbounds ([25 x i8]* @.str2, i32 0, i32 0), i32 80, i32 %8, i32 %9, i32 %10), !dbg !2677
  store i32 0, i32* %retval, !dbg !2678
  br label %return, !dbg !2678

return:                                           ; preds = %if.end, %if.then
  %11 = load i32* %retval, !dbg !2679
  ret i32 %11, !dbg !2679
}

define i32 @_ZN5Graph14getDestinationEjj(%struct.Graph* %this, i32 %src, i32 %nthedge) uwtable section "__device__" align 2 {
entry:
  %retval.i14 = alloca i32, align 4
  %this.addr.i15 = alloca %struct.Graph*, align 8
  %src.addr.i16 = alloca i32, align 4
  %id.i17 = alloca i32, align 4
  %retval.i.i = alloca i32, align 4
  %this.addr.i.i = alloca %struct.Graph*, align 8
  %src.addr.i.i = alloca i32, align 4
  %id.i.i = alloca i32, align 4
  %retval.i1 = alloca i32, align 4
  %this.addr.i2 = alloca %struct.Graph*, align 8
  %src.addr.i3 = alloca i32, align 4
  %id.i4 = alloca i32, align 4
  %srcnout.i = alloca i32, align 4
  %retval.i = alloca i32, align 4
  %this.addr.i = alloca %struct.Graph*, align 8
  %src.addr.i = alloca i32, align 4
  %id.i = alloca i32, align 4
  %retval = alloca i32, align 4
  %this.addr = alloca %struct.Graph*, align 8
  %src.addr = alloca i32, align 4
  %nthedge.addr = alloca i32, align 4
  %id = alloca i32, align 4
  %edge = alloca i32, align 4
  store %struct.Graph* %this, %struct.Graph** %this.addr, align 8
  store i32 %src, i32* %src.addr, align 4
  store i32 %nthedge, i32* %nthedge.addr, align 4
  %this1 = load %struct.Graph** %this.addr
  %0 = load i32* getelementptr inbounds (%struct.dim3* @blockIdx, i32 0, i32 0), align 4, !dbg !2680
  %1 = load i32* getelementptr inbounds (%struct.dim3* @blockDim, i32 0, i32 0), align 4, !dbg !2680
  %mul = mul i32 %0, %1, !dbg !2680
  %2 = load i32* getelementptr inbounds (%struct.dim3* @threadIdx, i32 0, i32 0), align 4, !dbg !2680
  %add = add i32 %mul, %2, !dbg !2680
  store i32 %add, i32* %id, align 4, !dbg !2680
  %3 = load i32* %src.addr, align 4, !dbg !2682
  %nnodes = getelementptr inbounds %struct.Graph* %this1, i32 0, i32 1, !dbg !2682
  %4 = load i32* %nnodes, align 4, !dbg !2682
  %cmp = icmp ult i32 %3, %4, !dbg !2682
  br i1 %cmp, label %land.lhs.true, label %if.end10, !dbg !2682

land.lhs.true:                                    ; preds = %entry
  %5 = load i32* %nthedge.addr, align 4, !dbg !2682
  %6 = load i32* %src.addr, align 4, !dbg !2682
  %7 = bitcast i32* %retval.i to i8*
  %8 = bitcast %struct.Graph** %this.addr.i to i8*
  %9 = bitcast i32* %src.addr.i to i8*
  %10 = bitcast i32* %id.i to i8*
  store %struct.Graph* %this1, %struct.Graph** %this.addr.i, align 8
  store i32 %6, i32* %src.addr.i, align 4
  %this1.i = load %struct.Graph** %this.addr.i
  %11 = load i32* %src.addr.i, align 4, !dbg !2683
  %nnodes.i = getelementptr inbounds %struct.Graph* %this1.i, i32 0, i32 1, !dbg !2683
  %12 = load i32* %nnodes.i, align 4, !dbg !2683
  %cmp.i = icmp ult i32 %11, %12, !dbg !2683
  br i1 %cmp.i, label %if.then.i, label %if.end.i, !dbg !2683

if.then.i:                                        ; preds = %land.lhs.true
  %13 = load i32* %src.addr.i, align 4, !dbg !2684
  %idxprom.i = zext i32 %13 to i64, !dbg !2684
  %noutgoing.i = getelementptr inbounds %struct.Graph* %this1.i, i32 0, i32 3, !dbg !2684
  %14 = load i32** %noutgoing.i, align 8, !dbg !2684
  %arrayidx.i = getelementptr inbounds i32* %14, i64 %idxprom.i, !dbg !2684
  %15 = load i32* %arrayidx.i, align 4, !dbg !2684
  store i32 %15, i32* %retval.i, !dbg !2684
  br label %_ZN5Graph12getOutDegreeEj.exit, !dbg !2684

if.end.i:                                         ; preds = %land.lhs.true
  %16 = load i32* getelementptr inbounds (%struct.dim3* @blockIdx, i32 0, i32 0), align 4, !dbg !2685
  %17 = load i32* getelementptr inbounds (%struct.dim3* @blockDim, i32 0, i32 0), align 4, !dbg !2685
  %mul.i = mul i32 %16, %17, !dbg !2685
  %18 = load i32* getelementptr inbounds (%struct.dim3* @threadIdx, i32 0, i32 0), align 4, !dbg !2685
  %add.i = add i32 %mul.i, %18, !dbg !2685
  store i32 %add.i, i32* %id.i, align 4, !dbg !2685
  %19 = load i32* %id.i, align 4, !dbg !2686
  %20 = load i32* %src.addr.i, align 4, !dbg !2686
  %nnodes2.i = getelementptr inbounds %struct.Graph* %this1.i, i32 0, i32 1, !dbg !2686
  %21 = load i32* %nnodes2.i, align 4, !dbg !2686
  %call.i = call i32 (i8*, ...)* @printf(i8* getelementptr inbounds ([53 x i8]* @.str1, i32 0, i32 0), i8* getelementptr inbounds ([25 x i8]* @.str2, i32 0, i32 0), i32 72, i32 %19, i32 %20, i32 %21), !dbg !2686
  store i32 0, i32* %retval.i, !dbg !2687
  br label %_ZN5Graph12getOutDegreeEj.exit, !dbg !2687

_ZN5Graph12getOutDegreeEj.exit:                   ; preds = %if.end.i, %if.then.i
  %22 = load i32* %retval.i, !dbg !2688
  %23 = bitcast i32* %retval.i to i8*, !dbg !2688
  %24 = bitcast %struct.Graph** %this.addr.i to i8*, !dbg !2688
  %25 = bitcast i32* %src.addr.i to i8*, !dbg !2688
  %26 = bitcast i32* %id.i to i8*, !dbg !2688
  %cmp2 = icmp ult i32 %5, %22, !dbg !2682
  br i1 %cmp2, label %if.then, label %if.end10, !dbg !2682

if.then:                                          ; preds = %_ZN5Graph12getOutDegreeEj.exit
  %27 = load i32* %src.addr, align 4, !dbg !2689
  %28 = bitcast i32* %retval.i1 to i8*
  %29 = bitcast %struct.Graph** %this.addr.i2 to i8*
  %30 = bitcast i32* %src.addr.i3 to i8*
  %31 = bitcast i32* %id.i4 to i8*
  %32 = bitcast i32* %srcnout.i to i8*
  store %struct.Graph* %this1, %struct.Graph** %this.addr.i2, align 8
  store i32 %27, i32* %src.addr.i3, align 4
  %this1.i5 = load %struct.Graph** %this.addr.i2
  %33 = load i32* getelementptr inbounds (%struct.dim3* @blockIdx, i32 0, i32 0), align 4, !dbg !2691
  %34 = load i32* getelementptr inbounds (%struct.dim3* @blockDim, i32 0, i32 0), align 4, !dbg !2691
  %mul.i6 = mul i32 %33, %34, !dbg !2691
  %35 = load i32* getelementptr inbounds (%struct.dim3* @threadIdx, i32 0, i32 0), align 4, !dbg !2691
  %add.i7 = add i32 %mul.i6, %35, !dbg !2691
  store i32 %add.i7, i32* %id.i4, align 4, !dbg !2691
  %36 = load i32* %src.addr.i3, align 4, !dbg !2693
  %nnodes.i8 = getelementptr inbounds %struct.Graph* %this1.i5, i32 0, i32 1, !dbg !2693
  %37 = load i32* %nnodes.i8, align 4, !dbg !2693
  %cmp.i9 = icmp ult i32 %36, %37, !dbg !2693
  br i1 %cmp.i9, label %if.then.i10, label %if.end12.i, !dbg !2693

if.then.i10:                                      ; preds = %if.then
  %38 = load i32* %src.addr.i3, align 4, !dbg !2694
  %39 = bitcast i32* %retval.i.i to i8*
  %40 = bitcast %struct.Graph** %this.addr.i.i to i8*
  %41 = bitcast i32* %src.addr.i.i to i8*
  %42 = bitcast i32* %id.i.i to i8*
  store %struct.Graph* %this1.i5, %struct.Graph** %this.addr.i.i, align 8
  store i32 %38, i32* %src.addr.i.i, align 4
  %this1.i.i = load %struct.Graph** %this.addr.i.i
  %43 = load i32* %src.addr.i.i, align 4, !dbg !2696
  %nnodes.i.i = getelementptr inbounds %struct.Graph* %this1.i.i, i32 0, i32 1, !dbg !2696
  %44 = load i32* %nnodes.i.i, align 4, !dbg !2696
  %cmp.i.i = icmp ult i32 %43, %44, !dbg !2696
  br i1 %cmp.i.i, label %if.then.i.i, label %if.end.i.i, !dbg !2696

if.then.i.i:                                      ; preds = %if.then.i10
  %45 = load i32* %src.addr.i.i, align 4, !dbg !2697
  %idxprom.i.i = zext i32 %45 to i64, !dbg !2697
  %noutgoing.i.i = getelementptr inbounds %struct.Graph* %this1.i.i, i32 0, i32 3, !dbg !2697
  %46 = load i32** %noutgoing.i.i, align 8, !dbg !2697
  %arrayidx.i.i = getelementptr inbounds i32* %46, i64 %idxprom.i.i, !dbg !2697
  %47 = load i32* %arrayidx.i.i, align 4, !dbg !2697
  store i32 %47, i32* %retval.i.i, !dbg !2697
  br label %_ZN5Graph12getOutDegreeEj.exit.i, !dbg !2697

if.end.i.i:                                       ; preds = %if.then.i10
  %48 = load i32* getelementptr inbounds (%struct.dim3* @blockIdx, i32 0, i32 0), align 4, !dbg !2698
  %49 = load i32* getelementptr inbounds (%struct.dim3* @blockDim, i32 0, i32 0), align 4, !dbg !2698
  %mul.i.i = mul i32 %48, %49, !dbg !2698
  %50 = load i32* getelementptr inbounds (%struct.dim3* @threadIdx, i32 0, i32 0), align 4, !dbg !2698
  %add.i.i = add i32 %mul.i.i, %50, !dbg !2698
  store i32 %add.i.i, i32* %id.i.i, align 4, !dbg !2698
  %51 = load i32* %id.i.i, align 4, !dbg !2699
  %52 = load i32* %src.addr.i.i, align 4, !dbg !2699
  %nnodes2.i.i = getelementptr inbounds %struct.Graph* %this1.i.i, i32 0, i32 1, !dbg !2699
  %53 = load i32* %nnodes2.i.i, align 4, !dbg !2699
  %call.i.i = call i32 (i8*, ...)* @printf(i8* getelementptr inbounds ([53 x i8]* @.str1, i32 0, i32 0), i8* getelementptr inbounds ([25 x i8]* @.str2, i32 0, i32 0), i32 72, i32 %51, i32 %52, i32 %53), !dbg !2699
  store i32 0, i32* %retval.i.i, !dbg !2700
  br label %_ZN5Graph12getOutDegreeEj.exit.i, !dbg !2700

_ZN5Graph12getOutDegreeEj.exit.i:                 ; preds = %if.end.i.i, %if.then.i.i
  %54 = load i32* %retval.i.i, !dbg !2701
  %55 = bitcast i32* %retval.i.i to i8*, !dbg !2701
  %56 = bitcast %struct.Graph** %this.addr.i.i to i8*, !dbg !2701
  %57 = bitcast i32* %src.addr.i.i to i8*, !dbg !2701
  %58 = bitcast i32* %id.i.i to i8*, !dbg !2701
  store i32 %54, i32* %srcnout.i, align 4, !dbg !2694
  %59 = load i32* %srcnout.i, align 4, !dbg !2702
  %cmp2.i = icmp ugt i32 %59, 0, !dbg !2702
  br i1 %cmp2.i, label %land.lhs.true.i, label %if.end.i13, !dbg !2702

land.lhs.true.i:                                  ; preds = %_ZN5Graph12getOutDegreeEj.exit.i
  %60 = load i32* %src.addr.i3, align 4, !dbg !2702
  %idxprom.i11 = zext i32 %60 to i64, !dbg !2702
  %srcsrc.i = getelementptr inbounds %struct.Graph* %this1.i5, i32 0, i32 5, !dbg !2702
  %61 = load i32** %srcsrc.i, align 8, !dbg !2702
  %arrayidx.i12 = getelementptr inbounds i32* %61, i64 %idxprom.i11, !dbg !2702
  %62 = load i32* %arrayidx.i12, align 4, !dbg !2702
  %nnodes3.i = getelementptr inbounds %struct.Graph* %this1.i5, i32 0, i32 1, !dbg !2702
  %63 = load i32* %nnodes3.i, align 4, !dbg !2702
  %cmp4.i = icmp ult i32 %62, %63, !dbg !2702
  br i1 %cmp4.i, label %if.then5.i, label %if.end.i13, !dbg !2702

if.then5.i:                                       ; preds = %land.lhs.true.i
  %64 = load i32* %src.addr.i3, align 4, !dbg !2703
  %idxprom6.i = zext i32 %64 to i64, !dbg !2703
  %srcsrc7.i = getelementptr inbounds %struct.Graph* %this1.i5, i32 0, i32 5, !dbg !2703
  %65 = load i32** %srcsrc7.i, align 8, !dbg !2703
  %arrayidx8.i = getelementptr inbounds i32* %65, i64 %idxprom6.i, !dbg !2703
  %66 = load i32* %arrayidx8.i, align 4, !dbg !2703
  %idxprom9.i = zext i32 %66 to i64, !dbg !2703
  %psrc.i = getelementptr inbounds %struct.Graph* %this1.i5, i32 0, i32 6, !dbg !2703
  %67 = load i32** %psrc.i, align 8, !dbg !2703
  %arrayidx10.i = getelementptr inbounds i32* %67, i64 %idxprom9.i, !dbg !2703
  %68 = load i32* %arrayidx10.i, align 4, !dbg !2703
  store i32 %68, i32* %retval.i1, !dbg !2703
  br label %_ZN5Graph12getFirstEdgeEj.exit, !dbg !2703

if.end.i13:                                       ; preds = %land.lhs.true.i, %_ZN5Graph12getOutDegreeEj.exit.i
  %69 = load i32* %id.i4, align 4, !dbg !2705
  %70 = load i32* %srcnout.i, align 4, !dbg !2705
  %call11.i = call i32 (i8*, ...)* @printf(i8* getelementptr inbounds ([53 x i8]* @.str4, i32 0, i32 0), i8* getelementptr inbounds ([25 x i8]* @.str2, i32 0, i32 0), i32 126, i32 %69, i32 0, i32 %70), !dbg !2705
  store i32 0, i32* %retval.i1, !dbg !2706
  br label %_ZN5Graph12getFirstEdgeEj.exit, !dbg !2706

if.end12.i:                                       ; preds = %if.then
  %71 = load i32* %id.i4, align 4, !dbg !2707
  %72 = load i32* %src.addr.i3, align 4, !dbg !2707
  %nnodes13.i = getelementptr inbounds %struct.Graph* %this1.i5, i32 0, i32 1, !dbg !2707
  %73 = load i32* %nnodes13.i, align 4, !dbg !2707
  %call14.i = call i32 (i8*, ...)* @printf(i8* getelementptr inbounds ([53 x i8]* @.str1, i32 0, i32 0), i8* getelementptr inbounds ([25 x i8]* @.str2, i32 0, i32 0), i32 129, i32 %71, i32 %72, i32 %73), !dbg !2707
  store i32 0, i32* %retval.i1, !dbg !2708
  br label %_ZN5Graph12getFirstEdgeEj.exit, !dbg !2708

_ZN5Graph12getFirstEdgeEj.exit:                   ; preds = %if.end12.i, %if.end.i13, %if.then5.i
  %74 = load i32* %retval.i1, !dbg !2709
  %75 = bitcast i32* %retval.i1 to i8*, !dbg !2709
  %76 = bitcast %struct.Graph** %this.addr.i2 to i8*, !dbg !2709
  %77 = bitcast i32* %src.addr.i3 to i8*, !dbg !2709
  %78 = bitcast i32* %id.i4 to i8*, !dbg !2709
  %79 = bitcast i32* %srcnout.i to i8*, !dbg !2709
  %80 = load i32* %nthedge.addr, align 4, !dbg !2689
  %add4 = add i32 %74, %80, !dbg !2689
  store i32 %add4, i32* %edge, align 4, !dbg !2689
  %81 = load i32* %edge, align 4, !dbg !2710
  %tobool = icmp ne i32 %81, 0, !dbg !2710
  br i1 %tobool, label %land.lhs.true5, label %if.end, !dbg !2710

land.lhs.true5:                                   ; preds = %_ZN5Graph12getFirstEdgeEj.exit
  %82 = load i32* %edge, align 4, !dbg !2710
  %nedges = getelementptr inbounds %struct.Graph* %this1, i32 0, i32 2, !dbg !2710
  %83 = load i32* %nedges, align 4, !dbg !2710
  %add6 = add i32 %83, 1, !dbg !2710
  %cmp7 = icmp ult i32 %82, %add6, !dbg !2710
  br i1 %cmp7, label %if.then8, label %if.end, !dbg !2710

if.then8:                                         ; preds = %land.lhs.true5
  %84 = load i32* %edge, align 4, !dbg !2711
  %idxprom = zext i32 %84 to i64, !dbg !2711
  %edgessrcdst = getelementptr inbounds %struct.Graph* %this1, i32 0, i32 7, !dbg !2711
  %85 = load i32** %edgessrcdst, align 8, !dbg !2711
  %arrayidx = getelementptr inbounds i32* %85, i64 %idxprom, !dbg !2711
  %86 = load i32* %arrayidx, align 4, !dbg !2711
  store i32 %86, i32* %retval, !dbg !2711
  br label %return, !dbg !2711

if.end:                                           ; preds = %land.lhs.true5, %_ZN5Graph12getFirstEdgeEj.exit
  %nnodes9 = getelementptr inbounds %struct.Graph* %this1, i32 0, i32 1, !dbg !2713
  %87 = load i32* %nnodes9, align 4, !dbg !2713
  store i32 %87, i32* %retval, !dbg !2713
  br label %return, !dbg !2713

if.end10:                                         ; preds = %_ZN5Graph12getOutDegreeEj.exit, %entry
  %88 = load i32* %src.addr, align 4, !dbg !2714
  %nnodes11 = getelementptr inbounds %struct.Graph* %this1, i32 0, i32 1, !dbg !2714
  %89 = load i32* %nnodes11, align 4, !dbg !2714
  %cmp12 = icmp ult i32 %88, %89, !dbg !2714
  %90 = load i32* %id, align 4, !dbg !2715
  %91 = load i32* %src.addr, align 4, !dbg !2715
  br i1 %cmp12, label %if.then13, label %if.else, !dbg !2714

if.then13:                                        ; preds = %if.end10
  %92 = load i32* %nthedge.addr, align 4, !dbg !2715
  %93 = load i32* %src.addr, align 4, !dbg !2715
  %94 = bitcast i32* %retval.i14 to i8*
  %95 = bitcast %struct.Graph** %this.addr.i15 to i8*
  %96 = bitcast i32* %src.addr.i16 to i8*
  %97 = bitcast i32* %id.i17 to i8*
  store %struct.Graph* %this1, %struct.Graph** %this.addr.i15, align 8
  store i32 %93, i32* %src.addr.i16, align 4
  %this1.i18 = load %struct.Graph** %this.addr.i15
  %98 = load i32* %src.addr.i16, align 4, !dbg !2717
  %nnodes.i19 = getelementptr inbounds %struct.Graph* %this1.i18, i32 0, i32 1, !dbg !2717
  %99 = load i32* %nnodes.i19, align 4, !dbg !2717
  %cmp.i20 = icmp ult i32 %98, %99, !dbg !2717
  br i1 %cmp.i20, label %if.then.i24, label %if.end.i29, !dbg !2717

if.then.i24:                                      ; preds = %if.then13
  %100 = load i32* %src.addr.i16, align 4, !dbg !2718
  %idxprom.i21 = zext i32 %100 to i64, !dbg !2718
  %noutgoing.i22 = getelementptr inbounds %struct.Graph* %this1.i18, i32 0, i32 3, !dbg !2718
  %101 = load i32** %noutgoing.i22, align 8, !dbg !2718
  %arrayidx.i23 = getelementptr inbounds i32* %101, i64 %idxprom.i21, !dbg !2718
  %102 = load i32* %arrayidx.i23, align 4, !dbg !2718
  store i32 %102, i32* %retval.i14, !dbg !2718
  br label %_ZN5Graph12getOutDegreeEj.exit30, !dbg !2718

if.end.i29:                                       ; preds = %if.then13
  %103 = load i32* getelementptr inbounds (%struct.dim3* @blockIdx, i32 0, i32 0), align 4, !dbg !2719
  %104 = load i32* getelementptr inbounds (%struct.dim3* @blockDim, i32 0, i32 0), align 4, !dbg !2719
  %mul.i25 = mul i32 %103, %104, !dbg !2719
  %105 = load i32* getelementptr inbounds (%struct.dim3* @threadIdx, i32 0, i32 0), align 4, !dbg !2719
  %add.i26 = add i32 %mul.i25, %105, !dbg !2719
  store i32 %add.i26, i32* %id.i17, align 4, !dbg !2719
  %106 = load i32* %id.i17, align 4, !dbg !2720
  %107 = load i32* %src.addr.i16, align 4, !dbg !2720
  %nnodes2.i27 = getelementptr inbounds %struct.Graph* %this1.i18, i32 0, i32 1, !dbg !2720
  %108 = load i32* %nnodes2.i27, align 4, !dbg !2720
  %call.i28 = call i32 (i8*, ...)* @printf(i8* getelementptr inbounds ([53 x i8]* @.str1, i32 0, i32 0), i8* getelementptr inbounds ([25 x i8]* @.str2, i32 0, i32 0), i32 72, i32 %106, i32 %107, i32 %108), !dbg !2720
  store i32 0, i32* %retval.i14, !dbg !2721
  br label %_ZN5Graph12getOutDegreeEj.exit30, !dbg !2721

_ZN5Graph12getOutDegreeEj.exit30:                 ; preds = %if.end.i29, %if.then.i24
  %109 = load i32* %retval.i14, !dbg !2722
  %110 = bitcast i32* %retval.i14 to i8*, !dbg !2722
  %111 = bitcast %struct.Graph** %this.addr.i15 to i8*, !dbg !2722
  %112 = bitcast i32* %src.addr.i16 to i8*, !dbg !2722
  %113 = bitcast i32* %id.i17 to i8*, !dbg !2722
  %call15 = call i32 (i8*, ...)* @printf(i8* getelementptr inbounds ([62 x i8]* @.str3, i32 0, i32 0), i8* getelementptr inbounds ([25 x i8]* @.str2, i32 0, i32 0), i32 94, i32 %90, i32 %91, i32 %92, i32 %109), !dbg !2715
  br label %if.end18, !dbg !2723

if.else:                                          ; preds = %if.end10
  %nnodes16 = getelementptr inbounds %struct.Graph* %this1, i32 0, i32 1, !dbg !2724
  %114 = load i32* %nnodes16, align 4, !dbg !2724
  %call17 = call i32 (i8*, ...)* @printf(i8* getelementptr inbounds ([53 x i8]* @.str1, i32 0, i32 0), i8* getelementptr inbounds ([25 x i8]* @.str2, i32 0, i32 0), i32 96, i32 %90, i32 %91, i32 %114), !dbg !2724
  br label %if.end18

if.end18:                                         ; preds = %if.else, %_ZN5Graph12getOutDegreeEj.exit30
  %nnodes19 = getelementptr inbounds %struct.Graph* %this1, i32 0, i32 1, !dbg !2726
  %115 = load i32* %nnodes19, align 4, !dbg !2726
  store i32 %115, i32* %retval, !dbg !2726
  br label %return, !dbg !2726

return:                                           ; preds = %if.end18, %if.end, %if.then8
  %116 = load i32* %retval, !dbg !2727
  ret i32 %116, !dbg !2727
}

define i32 @_ZN5Graph12getFirstEdgeEj(%struct.Graph* %this, i32 %src) uwtable section "__device__" align 2 {
entry:
  %retval.i = alloca i32, align 4
  %this.addr.i = alloca %struct.Graph*, align 8
  %src.addr.i = alloca i32, align 4
  %id.i = alloca i32, align 4
  %retval = alloca i32, align 4
  %this.addr = alloca %struct.Graph*, align 8
  %src.addr = alloca i32, align 4
  %id = alloca i32, align 4
  %srcnout = alloca i32, align 4
  store %struct.Graph* %this, %struct.Graph** %this.addr, align 8
  store i32 %src, i32* %src.addr, align 4
  %this1 = load %struct.Graph** %this.addr
  %0 = load i32* getelementptr inbounds (%struct.dim3* @blockIdx, i32 0, i32 0), align 4, !dbg !2728
  %1 = load i32* getelementptr inbounds (%struct.dim3* @blockDim, i32 0, i32 0), align 4, !dbg !2728
  %mul = mul i32 %0, %1, !dbg !2728
  %2 = load i32* getelementptr inbounds (%struct.dim3* @threadIdx, i32 0, i32 0), align 4, !dbg !2728
  %add = add i32 %mul, %2, !dbg !2728
  store i32 %add, i32* %id, align 4, !dbg !2728
  %3 = load i32* %src.addr, align 4, !dbg !2729
  %nnodes = getelementptr inbounds %struct.Graph* %this1, i32 0, i32 1, !dbg !2729
  %4 = load i32* %nnodes, align 4, !dbg !2729
  %cmp = icmp ult i32 %3, %4, !dbg !2729
  br i1 %cmp, label %if.then, label %if.end12, !dbg !2729

if.then:                                          ; preds = %entry
  %5 = load i32* %src.addr, align 4, !dbg !2730
  %6 = bitcast i32* %retval.i to i8*
  %7 = bitcast %struct.Graph** %this.addr.i to i8*
  %8 = bitcast i32* %src.addr.i to i8*
  %9 = bitcast i32* %id.i to i8*
  store %struct.Graph* %this1, %struct.Graph** %this.addr.i, align 8
  store i32 %5, i32* %src.addr.i, align 4
  %this1.i = load %struct.Graph** %this.addr.i
  %10 = load i32* %src.addr.i, align 4, !dbg !2731
  %nnodes.i = getelementptr inbounds %struct.Graph* %this1.i, i32 0, i32 1, !dbg !2731
  %11 = load i32* %nnodes.i, align 4, !dbg !2731
  %cmp.i = icmp ult i32 %10, %11, !dbg !2731
  br i1 %cmp.i, label %if.then.i, label %if.end.i, !dbg !2731

if.then.i:                                        ; preds = %if.then
  %12 = load i32* %src.addr.i, align 4, !dbg !2732
  %idxprom.i = zext i32 %12 to i64, !dbg !2732
  %noutgoing.i = getelementptr inbounds %struct.Graph* %this1.i, i32 0, i32 3, !dbg !2732
  %13 = load i32** %noutgoing.i, align 8, !dbg !2732
  %arrayidx.i = getelementptr inbounds i32* %13, i64 %idxprom.i, !dbg !2732
  %14 = load i32* %arrayidx.i, align 4, !dbg !2732
  store i32 %14, i32* %retval.i, !dbg !2732
  br label %_ZN5Graph12getOutDegreeEj.exit, !dbg !2732

if.end.i:                                         ; preds = %if.then
  %15 = load i32* getelementptr inbounds (%struct.dim3* @blockIdx, i32 0, i32 0), align 4, !dbg !2733
  %16 = load i32* getelementptr inbounds (%struct.dim3* @blockDim, i32 0, i32 0), align 4, !dbg !2733
  %mul.i = mul i32 %15, %16, !dbg !2733
  %17 = load i32* getelementptr inbounds (%struct.dim3* @threadIdx, i32 0, i32 0), align 4, !dbg !2733
  %add.i = add i32 %mul.i, %17, !dbg !2733
  store i32 %add.i, i32* %id.i, align 4, !dbg !2733
  %18 = load i32* %id.i, align 4, !dbg !2734
  %19 = load i32* %src.addr.i, align 4, !dbg !2734
  %nnodes2.i = getelementptr inbounds %struct.Graph* %this1.i, i32 0, i32 1, !dbg !2734
  %20 = load i32* %nnodes2.i, align 4, !dbg !2734
  %call.i = call i32 (i8*, ...)* @printf(i8* getelementptr inbounds ([53 x i8]* @.str1, i32 0, i32 0), i8* getelementptr inbounds ([25 x i8]* @.str2, i32 0, i32 0), i32 72, i32 %18, i32 %19, i32 %20), !dbg !2734
  store i32 0, i32* %retval.i, !dbg !2735
  br label %_ZN5Graph12getOutDegreeEj.exit, !dbg !2735

_ZN5Graph12getOutDegreeEj.exit:                   ; preds = %if.end.i, %if.then.i
  %21 = load i32* %retval.i, !dbg !2736
  %22 = bitcast i32* %retval.i to i8*, !dbg !2736
  %23 = bitcast %struct.Graph** %this.addr.i to i8*, !dbg !2736
  %24 = bitcast i32* %src.addr.i to i8*, !dbg !2736
  %25 = bitcast i32* %id.i to i8*, !dbg !2736
  store i32 %21, i32* %srcnout, align 4, !dbg !2730
  %26 = load i32* %srcnout, align 4, !dbg !2737
  %cmp2 = icmp ugt i32 %26, 0, !dbg !2737
  br i1 %cmp2, label %land.lhs.true, label %if.end, !dbg !2737

land.lhs.true:                                    ; preds = %_ZN5Graph12getOutDegreeEj.exit
  %27 = load i32* %src.addr, align 4, !dbg !2737
  %idxprom = zext i32 %27 to i64, !dbg !2737
  %srcsrc = getelementptr inbounds %struct.Graph* %this1, i32 0, i32 5, !dbg !2737
  %28 = load i32** %srcsrc, align 8, !dbg !2737
  %arrayidx = getelementptr inbounds i32* %28, i64 %idxprom, !dbg !2737
  %29 = load i32* %arrayidx, align 4, !dbg !2737
  %nnodes3 = getelementptr inbounds %struct.Graph* %this1, i32 0, i32 1, !dbg !2737
  %30 = load i32* %nnodes3, align 4, !dbg !2737
  %cmp4 = icmp ult i32 %29, %30, !dbg !2737
  br i1 %cmp4, label %if.then5, label %if.end, !dbg !2737

if.then5:                                         ; preds = %land.lhs.true
  %31 = load i32* %src.addr, align 4, !dbg !2738
  %idxprom6 = zext i32 %31 to i64, !dbg !2738
  %srcsrc7 = getelementptr inbounds %struct.Graph* %this1, i32 0, i32 5, !dbg !2738
  %32 = load i32** %srcsrc7, align 8, !dbg !2738
  %arrayidx8 = getelementptr inbounds i32* %32, i64 %idxprom6, !dbg !2738
  %33 = load i32* %arrayidx8, align 4, !dbg !2738
  %idxprom9 = zext i32 %33 to i64, !dbg !2738
  %psrc = getelementptr inbounds %struct.Graph* %this1, i32 0, i32 6, !dbg !2738
  %34 = load i32** %psrc, align 8, !dbg !2738
  %arrayidx10 = getelementptr inbounds i32* %34, i64 %idxprom9, !dbg !2738
  %35 = load i32* %arrayidx10, align 4, !dbg !2738
  store i32 %35, i32* %retval, !dbg !2738
  br label %return, !dbg !2738

if.end:                                           ; preds = %land.lhs.true, %_ZN5Graph12getOutDegreeEj.exit
  %36 = load i32* %id, align 4, !dbg !2739
  %37 = load i32* %srcnout, align 4, !dbg !2739
  %call11 = call i32 (i8*, ...)* @printf(i8* getelementptr inbounds ([53 x i8]* @.str4, i32 0, i32 0), i8* getelementptr inbounds ([25 x i8]* @.str2, i32 0, i32 0), i32 126, i32 %36, i32 0, i32 %37), !dbg !2739
  store i32 0, i32* %retval, !dbg !2740
  br label %return, !dbg !2740

if.end12:                                         ; preds = %entry
  %38 = load i32* %id, align 4, !dbg !2741
  %39 = load i32* %src.addr, align 4, !dbg !2741
  %nnodes13 = getelementptr inbounds %struct.Graph* %this1, i32 0, i32 1, !dbg !2741
  %40 = load i32* %nnodes13, align 4, !dbg !2741
  %call14 = call i32 (i8*, ...)* @printf(i8* getelementptr inbounds ([53 x i8]* @.str1, i32 0, i32 0), i8* getelementptr inbounds ([25 x i8]* @.str2, i32 0, i32 0), i32 129, i32 %38, i32 %39, i32 %40), !dbg !2741
  store i32 0, i32* %retval, !dbg !2742
  br label %return, !dbg !2742

return:                                           ; preds = %if.end12, %if.end, %if.then5
  %41 = load i32* %retval, !dbg !2743
  ret i32 %41, !dbg !2743
}

define i32 @_ZN5Graph9getWeightEjj(%struct.Graph* %this, i32 %src, i32 %nthedge) uwtable section "__device__" align 2 {
entry:
  %retval.i14 = alloca i32, align 4
  %this.addr.i15 = alloca %struct.Graph*, align 8
  %src.addr.i16 = alloca i32, align 4
  %id.i17 = alloca i32, align 4
  %retval.i.i = alloca i32, align 4
  %this.addr.i.i = alloca %struct.Graph*, align 8
  %src.addr.i.i = alloca i32, align 4
  %id.i.i = alloca i32, align 4
  %retval.i1 = alloca i32, align 4
  %this.addr.i2 = alloca %struct.Graph*, align 8
  %src.addr.i3 = alloca i32, align 4
  %id.i4 = alloca i32, align 4
  %srcnout.i = alloca i32, align 4
  %retval.i = alloca i32, align 4
  %this.addr.i = alloca %struct.Graph*, align 8
  %src.addr.i = alloca i32, align 4
  %id.i = alloca i32, align 4
  %retval = alloca i32, align 4
  %this.addr = alloca %struct.Graph*, align 8
  %src.addr = alloca i32, align 4
  %nthedge.addr = alloca i32, align 4
  %id = alloca i32, align 4
  %edge = alloca i32, align 4
  store %struct.Graph* %this, %struct.Graph** %this.addr, align 8
  store i32 %src, i32* %src.addr, align 4
  store i32 %nthedge, i32* %nthedge.addr, align 4
  %this1 = load %struct.Graph** %this.addr
  %0 = load i32* getelementptr inbounds (%struct.dim3* @blockIdx, i32 0, i32 0), align 4, !dbg !2744
  %1 = load i32* getelementptr inbounds (%struct.dim3* @blockDim, i32 0, i32 0), align 4, !dbg !2744
  %mul = mul i32 %0, %1, !dbg !2744
  %2 = load i32* getelementptr inbounds (%struct.dim3* @threadIdx, i32 0, i32 0), align 4, !dbg !2744
  %add = add i32 %mul, %2, !dbg !2744
  store i32 %add, i32* %id, align 4, !dbg !2744
  %3 = load i32* %src.addr, align 4, !dbg !2746
  %nnodes = getelementptr inbounds %struct.Graph* %this1, i32 0, i32 1, !dbg !2746
  %4 = load i32* %nnodes, align 4, !dbg !2746
  %cmp = icmp ult i32 %3, %4, !dbg !2746
  br i1 %cmp, label %land.lhs.true, label %if.end9, !dbg !2746

land.lhs.true:                                    ; preds = %entry
  %5 = load i32* %nthedge.addr, align 4, !dbg !2746
  %6 = load i32* %src.addr, align 4, !dbg !2746
  %7 = bitcast i32* %retval.i to i8*
  %8 = bitcast %struct.Graph** %this.addr.i to i8*
  %9 = bitcast i32* %src.addr.i to i8*
  %10 = bitcast i32* %id.i to i8*
  store %struct.Graph* %this1, %struct.Graph** %this.addr.i, align 8
  store i32 %6, i32* %src.addr.i, align 4
  %this1.i = load %struct.Graph** %this.addr.i
  %11 = load i32* %src.addr.i, align 4, !dbg !2747
  %nnodes.i = getelementptr inbounds %struct.Graph* %this1.i, i32 0, i32 1, !dbg !2747
  %12 = load i32* %nnodes.i, align 4, !dbg !2747
  %cmp.i = icmp ult i32 %11, %12, !dbg !2747
  br i1 %cmp.i, label %if.then.i, label %if.end.i, !dbg !2747

if.then.i:                                        ; preds = %land.lhs.true
  %13 = load i32* %src.addr.i, align 4, !dbg !2748
  %idxprom.i = zext i32 %13 to i64, !dbg !2748
  %noutgoing.i = getelementptr inbounds %struct.Graph* %this1.i, i32 0, i32 3, !dbg !2748
  %14 = load i32** %noutgoing.i, align 8, !dbg !2748
  %arrayidx.i = getelementptr inbounds i32* %14, i64 %idxprom.i, !dbg !2748
  %15 = load i32* %arrayidx.i, align 4, !dbg !2748
  store i32 %15, i32* %retval.i, !dbg !2748
  br label %_ZN5Graph12getOutDegreeEj.exit, !dbg !2748

if.end.i:                                         ; preds = %land.lhs.true
  %16 = load i32* getelementptr inbounds (%struct.dim3* @blockIdx, i32 0, i32 0), align 4, !dbg !2749
  %17 = load i32* getelementptr inbounds (%struct.dim3* @blockDim, i32 0, i32 0), align 4, !dbg !2749
  %mul.i = mul i32 %16, %17, !dbg !2749
  %18 = load i32* getelementptr inbounds (%struct.dim3* @threadIdx, i32 0, i32 0), align 4, !dbg !2749
  %add.i = add i32 %mul.i, %18, !dbg !2749
  store i32 %add.i, i32* %id.i, align 4, !dbg !2749
  %19 = load i32* %id.i, align 4, !dbg !2750
  %20 = load i32* %src.addr.i, align 4, !dbg !2750
  %nnodes2.i = getelementptr inbounds %struct.Graph* %this1.i, i32 0, i32 1, !dbg !2750
  %21 = load i32* %nnodes2.i, align 4, !dbg !2750
  %call.i = call i32 (i8*, ...)* @printf(i8* getelementptr inbounds ([53 x i8]* @.str1, i32 0, i32 0), i8* getelementptr inbounds ([25 x i8]* @.str2, i32 0, i32 0), i32 72, i32 %19, i32 %20, i32 %21), !dbg !2750
  store i32 0, i32* %retval.i, !dbg !2751
  br label %_ZN5Graph12getOutDegreeEj.exit, !dbg !2751

_ZN5Graph12getOutDegreeEj.exit:                   ; preds = %if.end.i, %if.then.i
  %22 = load i32* %retval.i, !dbg !2752
  %23 = bitcast i32* %retval.i to i8*, !dbg !2752
  %24 = bitcast %struct.Graph** %this.addr.i to i8*, !dbg !2752
  %25 = bitcast i32* %src.addr.i to i8*, !dbg !2752
  %26 = bitcast i32* %id.i to i8*, !dbg !2752
  %cmp2 = icmp ult i32 %5, %22, !dbg !2746
  br i1 %cmp2, label %if.then, label %if.end9, !dbg !2746

if.then:                                          ; preds = %_ZN5Graph12getOutDegreeEj.exit
  %27 = load i32* %src.addr, align 4, !dbg !2753
  %28 = bitcast i32* %retval.i1 to i8*
  %29 = bitcast %struct.Graph** %this.addr.i2 to i8*
  %30 = bitcast i32* %src.addr.i3 to i8*
  %31 = bitcast i32* %id.i4 to i8*
  %32 = bitcast i32* %srcnout.i to i8*
  store %struct.Graph* %this1, %struct.Graph** %this.addr.i2, align 8
  store i32 %27, i32* %src.addr.i3, align 4
  %this1.i5 = load %struct.Graph** %this.addr.i2
  %33 = load i32* getelementptr inbounds (%struct.dim3* @blockIdx, i32 0, i32 0), align 4, !dbg !2755
  %34 = load i32* getelementptr inbounds (%struct.dim3* @blockDim, i32 0, i32 0), align 4, !dbg !2755
  %mul.i6 = mul i32 %33, %34, !dbg !2755
  %35 = load i32* getelementptr inbounds (%struct.dim3* @threadIdx, i32 0, i32 0), align 4, !dbg !2755
  %add.i7 = add i32 %mul.i6, %35, !dbg !2755
  store i32 %add.i7, i32* %id.i4, align 4, !dbg !2755
  %36 = load i32* %src.addr.i3, align 4, !dbg !2756
  %nnodes.i8 = getelementptr inbounds %struct.Graph* %this1.i5, i32 0, i32 1, !dbg !2756
  %37 = load i32* %nnodes.i8, align 4, !dbg !2756
  %cmp.i9 = icmp ult i32 %36, %37, !dbg !2756
  br i1 %cmp.i9, label %if.then.i10, label %if.end12.i, !dbg !2756

if.then.i10:                                      ; preds = %if.then
  %38 = load i32* %src.addr.i3, align 4, !dbg !2757
  %39 = bitcast i32* %retval.i.i to i8*
  %40 = bitcast %struct.Graph** %this.addr.i.i to i8*
  %41 = bitcast i32* %src.addr.i.i to i8*
  %42 = bitcast i32* %id.i.i to i8*
  store %struct.Graph* %this1.i5, %struct.Graph** %this.addr.i.i, align 8
  store i32 %38, i32* %src.addr.i.i, align 4
  %this1.i.i = load %struct.Graph** %this.addr.i.i
  %43 = load i32* %src.addr.i.i, align 4, !dbg !2758
  %nnodes.i.i = getelementptr inbounds %struct.Graph* %this1.i.i, i32 0, i32 1, !dbg !2758
  %44 = load i32* %nnodes.i.i, align 4, !dbg !2758
  %cmp.i.i = icmp ult i32 %43, %44, !dbg !2758
  br i1 %cmp.i.i, label %if.then.i.i, label %if.end.i.i, !dbg !2758

if.then.i.i:                                      ; preds = %if.then.i10
  %45 = load i32* %src.addr.i.i, align 4, !dbg !2759
  %idxprom.i.i = zext i32 %45 to i64, !dbg !2759
  %noutgoing.i.i = getelementptr inbounds %struct.Graph* %this1.i.i, i32 0, i32 3, !dbg !2759
  %46 = load i32** %noutgoing.i.i, align 8, !dbg !2759
  %arrayidx.i.i = getelementptr inbounds i32* %46, i64 %idxprom.i.i, !dbg !2759
  %47 = load i32* %arrayidx.i.i, align 4, !dbg !2759
  store i32 %47, i32* %retval.i.i, !dbg !2759
  br label %_ZN5Graph12getOutDegreeEj.exit.i, !dbg !2759

if.end.i.i:                                       ; preds = %if.then.i10
  %48 = load i32* getelementptr inbounds (%struct.dim3* @blockIdx, i32 0, i32 0), align 4, !dbg !2760
  %49 = load i32* getelementptr inbounds (%struct.dim3* @blockDim, i32 0, i32 0), align 4, !dbg !2760
  %mul.i.i = mul i32 %48, %49, !dbg !2760
  %50 = load i32* getelementptr inbounds (%struct.dim3* @threadIdx, i32 0, i32 0), align 4, !dbg !2760
  %add.i.i = add i32 %mul.i.i, %50, !dbg !2760
  store i32 %add.i.i, i32* %id.i.i, align 4, !dbg !2760
  %51 = load i32* %id.i.i, align 4, !dbg !2761
  %52 = load i32* %src.addr.i.i, align 4, !dbg !2761
  %nnodes2.i.i = getelementptr inbounds %struct.Graph* %this1.i.i, i32 0, i32 1, !dbg !2761
  %53 = load i32* %nnodes2.i.i, align 4, !dbg !2761
  %call.i.i = call i32 (i8*, ...)* @printf(i8* getelementptr inbounds ([53 x i8]* @.str1, i32 0, i32 0), i8* getelementptr inbounds ([25 x i8]* @.str2, i32 0, i32 0), i32 72, i32 %51, i32 %52, i32 %53), !dbg !2761
  store i32 0, i32* %retval.i.i, !dbg !2762
  br label %_ZN5Graph12getOutDegreeEj.exit.i, !dbg !2762

_ZN5Graph12getOutDegreeEj.exit.i:                 ; preds = %if.end.i.i, %if.then.i.i
  %54 = load i32* %retval.i.i, !dbg !2763
  %55 = bitcast i32* %retval.i.i to i8*, !dbg !2763
  %56 = bitcast %struct.Graph** %this.addr.i.i to i8*, !dbg !2763
  %57 = bitcast i32* %src.addr.i.i to i8*, !dbg !2763
  %58 = bitcast i32* %id.i.i to i8*, !dbg !2763
  store i32 %54, i32* %srcnout.i, align 4, !dbg !2757
  %59 = load i32* %srcnout.i, align 4, !dbg !2764
  %cmp2.i = icmp ugt i32 %59, 0, !dbg !2764
  br i1 %cmp2.i, label %land.lhs.true.i, label %if.end.i13, !dbg !2764

land.lhs.true.i:                                  ; preds = %_ZN5Graph12getOutDegreeEj.exit.i
  %60 = load i32* %src.addr.i3, align 4, !dbg !2764
  %idxprom.i11 = zext i32 %60 to i64, !dbg !2764
  %srcsrc.i = getelementptr inbounds %struct.Graph* %this1.i5, i32 0, i32 5, !dbg !2764
  %61 = load i32** %srcsrc.i, align 8, !dbg !2764
  %arrayidx.i12 = getelementptr inbounds i32* %61, i64 %idxprom.i11, !dbg !2764
  %62 = load i32* %arrayidx.i12, align 4, !dbg !2764
  %nnodes3.i = getelementptr inbounds %struct.Graph* %this1.i5, i32 0, i32 1, !dbg !2764
  %63 = load i32* %nnodes3.i, align 4, !dbg !2764
  %cmp4.i = icmp ult i32 %62, %63, !dbg !2764
  br i1 %cmp4.i, label %if.then5.i, label %if.end.i13, !dbg !2764

if.then5.i:                                       ; preds = %land.lhs.true.i
  %64 = load i32* %src.addr.i3, align 4, !dbg !2765
  %idxprom6.i = zext i32 %64 to i64, !dbg !2765
  %srcsrc7.i = getelementptr inbounds %struct.Graph* %this1.i5, i32 0, i32 5, !dbg !2765
  %65 = load i32** %srcsrc7.i, align 8, !dbg !2765
  %arrayidx8.i = getelementptr inbounds i32* %65, i64 %idxprom6.i, !dbg !2765
  %66 = load i32* %arrayidx8.i, align 4, !dbg !2765
  %idxprom9.i = zext i32 %66 to i64, !dbg !2765
  %psrc.i = getelementptr inbounds %struct.Graph* %this1.i5, i32 0, i32 6, !dbg !2765
  %67 = load i32** %psrc.i, align 8, !dbg !2765
  %arrayidx10.i = getelementptr inbounds i32* %67, i64 %idxprom9.i, !dbg !2765
  %68 = load i32* %arrayidx10.i, align 4, !dbg !2765
  store i32 %68, i32* %retval.i1, !dbg !2765
  br label %_ZN5Graph12getFirstEdgeEj.exit, !dbg !2765

if.end.i13:                                       ; preds = %land.lhs.true.i, %_ZN5Graph12getOutDegreeEj.exit.i
  %69 = load i32* %id.i4, align 4, !dbg !2766
  %70 = load i32* %srcnout.i, align 4, !dbg !2766
  %call11.i = call i32 (i8*, ...)* @printf(i8* getelementptr inbounds ([53 x i8]* @.str4, i32 0, i32 0), i8* getelementptr inbounds ([25 x i8]* @.str2, i32 0, i32 0), i32 126, i32 %69, i32 0, i32 %70), !dbg !2766
  store i32 0, i32* %retval.i1, !dbg !2767
  br label %_ZN5Graph12getFirstEdgeEj.exit, !dbg !2767

if.end12.i:                                       ; preds = %if.then
  %71 = load i32* %id.i4, align 4, !dbg !2768
  %72 = load i32* %src.addr.i3, align 4, !dbg !2768
  %nnodes13.i = getelementptr inbounds %struct.Graph* %this1.i5, i32 0, i32 1, !dbg !2768
  %73 = load i32* %nnodes13.i, align 4, !dbg !2768
  %call14.i = call i32 (i8*, ...)* @printf(i8* getelementptr inbounds ([53 x i8]* @.str1, i32 0, i32 0), i8* getelementptr inbounds ([25 x i8]* @.str2, i32 0, i32 0), i32 129, i32 %71, i32 %72, i32 %73), !dbg !2768
  store i32 0, i32* %retval.i1, !dbg !2769
  br label %_ZN5Graph12getFirstEdgeEj.exit, !dbg !2769

_ZN5Graph12getFirstEdgeEj.exit:                   ; preds = %if.end12.i, %if.end.i13, %if.then5.i
  %74 = load i32* %retval.i1, !dbg !2770
  %75 = bitcast i32* %retval.i1 to i8*, !dbg !2770
  %76 = bitcast %struct.Graph** %this.addr.i2 to i8*, !dbg !2770
  %77 = bitcast i32* %src.addr.i3 to i8*, !dbg !2770
  %78 = bitcast i32* %id.i4 to i8*, !dbg !2770
  %79 = bitcast i32* %srcnout.i to i8*, !dbg !2770
  %80 = load i32* %nthedge.addr, align 4, !dbg !2753
  %add4 = add i32 %74, %80, !dbg !2753
  store i32 %add4, i32* %edge, align 4, !dbg !2753
  %81 = load i32* %edge, align 4, !dbg !2771
  %tobool = icmp ne i32 %81, 0, !dbg !2771
  br i1 %tobool, label %land.lhs.true5, label %if.end, !dbg !2771

land.lhs.true5:                                   ; preds = %_ZN5Graph12getFirstEdgeEj.exit
  %82 = load i32* %edge, align 4, !dbg !2771
  %nedges = getelementptr inbounds %struct.Graph* %this1, i32 0, i32 2, !dbg !2771
  %83 = load i32* %nedges, align 4, !dbg !2771
  %add6 = add i32 %83, 1, !dbg !2771
  %cmp7 = icmp ult i32 %82, %add6, !dbg !2771
  br i1 %cmp7, label %if.then8, label %if.end, !dbg !2771

if.then8:                                         ; preds = %land.lhs.true5
  %84 = load i32* %edge, align 4, !dbg !2772
  %idxprom = zext i32 %84 to i64, !dbg !2772
  %edgessrcwt = getelementptr inbounds %struct.Graph* %this1, i32 0, i32 8, !dbg !2772
  %85 = load i32** %edgessrcwt, align 8, !dbg !2772
  %arrayidx = getelementptr inbounds i32* %85, i64 %idxprom, !dbg !2772
  %86 = load i32* %arrayidx, align 4, !dbg !2772
  store i32 %86, i32* %retval, !dbg !2772
  br label %return, !dbg !2772

if.end:                                           ; preds = %land.lhs.true5, %_ZN5Graph12getFirstEdgeEj.exit
  store i32 1000000000, i32* %retval, !dbg !2774
  br label %return, !dbg !2774

if.end9:                                          ; preds = %_ZN5Graph12getOutDegreeEj.exit, %entry
  %87 = load i32* %src.addr, align 4, !dbg !2775
  %nnodes10 = getelementptr inbounds %struct.Graph* %this1, i32 0, i32 1, !dbg !2775
  %88 = load i32* %nnodes10, align 4, !dbg !2775
  %cmp11 = icmp ult i32 %87, %88, !dbg !2775
  %89 = load i32* %id, align 4, !dbg !2776
  %90 = load i32* %src.addr, align 4, !dbg !2776
  br i1 %cmp11, label %if.then12, label %if.else, !dbg !2775

if.then12:                                        ; preds = %if.end9
  %91 = load i32* %nthedge.addr, align 4, !dbg !2776
  %92 = load i32* %src.addr, align 4, !dbg !2776
  %93 = bitcast i32* %retval.i14 to i8*
  %94 = bitcast %struct.Graph** %this.addr.i15 to i8*
  %95 = bitcast i32* %src.addr.i16 to i8*
  %96 = bitcast i32* %id.i17 to i8*
  store %struct.Graph* %this1, %struct.Graph** %this.addr.i15, align 8
  store i32 %92, i32* %src.addr.i16, align 4
  %this1.i18 = load %struct.Graph** %this.addr.i15
  %97 = load i32* %src.addr.i16, align 4, !dbg !2778
  %nnodes.i19 = getelementptr inbounds %struct.Graph* %this1.i18, i32 0, i32 1, !dbg !2778
  %98 = load i32* %nnodes.i19, align 4, !dbg !2778
  %cmp.i20 = icmp ult i32 %97, %98, !dbg !2778
  br i1 %cmp.i20, label %if.then.i24, label %if.end.i29, !dbg !2778

if.then.i24:                                      ; preds = %if.then12
  %99 = load i32* %src.addr.i16, align 4, !dbg !2779
  %idxprom.i21 = zext i32 %99 to i64, !dbg !2779
  %noutgoing.i22 = getelementptr inbounds %struct.Graph* %this1.i18, i32 0, i32 3, !dbg !2779
  %100 = load i32** %noutgoing.i22, align 8, !dbg !2779
  %arrayidx.i23 = getelementptr inbounds i32* %100, i64 %idxprom.i21, !dbg !2779
  %101 = load i32* %arrayidx.i23, align 4, !dbg !2779
  store i32 %101, i32* %retval.i14, !dbg !2779
  br label %_ZN5Graph12getOutDegreeEj.exit30, !dbg !2779

if.end.i29:                                       ; preds = %if.then12
  %102 = load i32* getelementptr inbounds (%struct.dim3* @blockIdx, i32 0, i32 0), align 4, !dbg !2780
  %103 = load i32* getelementptr inbounds (%struct.dim3* @blockDim, i32 0, i32 0), align 4, !dbg !2780
  %mul.i25 = mul i32 %102, %103, !dbg !2780
  %104 = load i32* getelementptr inbounds (%struct.dim3* @threadIdx, i32 0, i32 0), align 4, !dbg !2780
  %add.i26 = add i32 %mul.i25, %104, !dbg !2780
  store i32 %add.i26, i32* %id.i17, align 4, !dbg !2780
  %105 = load i32* %id.i17, align 4, !dbg !2781
  %106 = load i32* %src.addr.i16, align 4, !dbg !2781
  %nnodes2.i27 = getelementptr inbounds %struct.Graph* %this1.i18, i32 0, i32 1, !dbg !2781
  %107 = load i32* %nnodes2.i27, align 4, !dbg !2781
  %call.i28 = call i32 (i8*, ...)* @printf(i8* getelementptr inbounds ([53 x i8]* @.str1, i32 0, i32 0), i8* getelementptr inbounds ([25 x i8]* @.str2, i32 0, i32 0), i32 72, i32 %105, i32 %106, i32 %107), !dbg !2781
  store i32 0, i32* %retval.i14, !dbg !2782
  br label %_ZN5Graph12getOutDegreeEj.exit30, !dbg !2782

_ZN5Graph12getOutDegreeEj.exit30:                 ; preds = %if.end.i29, %if.then.i24
  %108 = load i32* %retval.i14, !dbg !2783
  %109 = bitcast i32* %retval.i14 to i8*, !dbg !2783
  %110 = bitcast %struct.Graph** %this.addr.i15 to i8*, !dbg !2783
  %111 = bitcast i32* %src.addr.i16 to i8*, !dbg !2783
  %112 = bitcast i32* %id.i17 to i8*, !dbg !2783
  %call14 = call i32 (i8*, ...)* @printf(i8* getelementptr inbounds ([62 x i8]* @.str3, i32 0, i32 0), i8* getelementptr inbounds ([25 x i8]* @.str2, i32 0, i32 0), i32 111, i32 %89, i32 %90, i32 %91, i32 %108), !dbg !2776
  br label %if.end17, !dbg !2784

if.else:                                          ; preds = %if.end9
  %nnodes15 = getelementptr inbounds %struct.Graph* %this1, i32 0, i32 1, !dbg !2785
  %113 = load i32* %nnodes15, align 4, !dbg !2785
  %call16 = call i32 (i8*, ...)* @printf(i8* getelementptr inbounds ([53 x i8]* @.str1, i32 0, i32 0), i8* getelementptr inbounds ([25 x i8]* @.str2, i32 0, i32 0), i32 113, i32 %89, i32 %90, i32 %113), !dbg !2785
  br label %if.end17

if.end17:                                         ; preds = %if.else, %_ZN5Graph12getOutDegreeEj.exit30
  store i32 1000000000, i32* %retval, !dbg !2787
  br label %return, !dbg !2787

return:                                           ; preds = %if.end17, %if.end, %if.then8
  %114 = load i32* %retval, !dbg !2788
  ret i32 %114, !dbg !2788
}

define i32 @_ZN5Graph10getMinEdgeEj(%struct.Graph* %this, i32 %src) uwtable section "__device__" align 2 {
entry:
  %retval.i14.i14 = alloca i32, align 4
  %this.addr.i15.i15 = alloca %struct.Graph*, align 8
  %src.addr.i16.i16 = alloca i32, align 4
  %id.i17.i17 = alloca i32, align 4
  %retval.i.i.i18 = alloca i32, align 4
  %this.addr.i.i.i19 = alloca %struct.Graph*, align 8
  %src.addr.i.i.i20 = alloca i32, align 4
  %id.i.i.i21 = alloca i32, align 4
  %retval.i1.i22 = alloca i32, align 4
  %this.addr.i2.i23 = alloca %struct.Graph*, align 8
  %src.addr.i3.i24 = alloca i32, align 4
  %id.i4.i25 = alloca i32, align 4
  %srcnout.i.i26 = alloca i32, align 4
  %retval.i.i27 = alloca i32, align 4
  %this.addr.i.i28 = alloca %struct.Graph*, align 8
  %src.addr.i.i29 = alloca i32, align 4
  %id.i.i30 = alloca i32, align 4
  %retval.i31 = alloca i32, align 4
  %this.addr.i32 = alloca %struct.Graph*, align 8
  %src.addr.i33 = alloca i32, align 4
  %nthedge.addr.i34 = alloca i32, align 4
  %id.i35 = alloca i32, align 4
  %edge.i36 = alloca i32, align 4
  %retval.i14.i = alloca i32, align 4
  %this.addr.i15.i = alloca %struct.Graph*, align 8
  %src.addr.i16.i = alloca i32, align 4
  %id.i17.i = alloca i32, align 4
  %retval.i.i.i = alloca i32, align 4
  %this.addr.i.i.i = alloca %struct.Graph*, align 8
  %src.addr.i.i.i = alloca i32, align 4
  %id.i.i.i = alloca i32, align 4
  %retval.i1.i = alloca i32, align 4
  %this.addr.i2.i = alloca %struct.Graph*, align 8
  %src.addr.i3.i = alloca i32, align 4
  %id.i4.i = alloca i32, align 4
  %srcnout.i.i = alloca i32, align 4
  %retval.i.i = alloca i32, align 4
  %this.addr.i.i = alloca %struct.Graph*, align 8
  %src.addr.i.i = alloca i32, align 4
  %id.i.i = alloca i32, align 4
  %retval.i1 = alloca i32, align 4
  %this.addr.i2 = alloca %struct.Graph*, align 8
  %src.addr.i3 = alloca i32, align 4
  %nthedge.addr.i = alloca i32, align 4
  %id.i4 = alloca i32, align 4
  %edge.i = alloca i32, align 4
  %retval.i = alloca i32, align 4
  %this.addr.i = alloca %struct.Graph*, align 8
  %src.addr.i = alloca i32, align 4
  %id.i = alloca i32, align 4
  %retval = alloca i32, align 4
  %this.addr = alloca %struct.Graph*, align 8
  %src.addr = alloca i32, align 4
  %id = alloca i32, align 4
  %srcnout = alloca i32, align 4
  %minedge = alloca i32, align 4
  %minwt = alloca i32, align 4
  %ii = alloca i32, align 4
  %wt = alloca i32, align 4
  store %struct.Graph* %this, %struct.Graph** %this.addr, align 8
  store i32 %src, i32* %src.addr, align 4
  %this1 = load %struct.Graph** %this.addr
  %0 = load i32* getelementptr inbounds (%struct.dim3* @blockIdx, i32 0, i32 0), align 4, !dbg !2789
  %1 = load i32* getelementptr inbounds (%struct.dim3* @blockDim, i32 0, i32 0), align 4, !dbg !2789
  %mul = mul i32 %0, %1, !dbg !2789
  %2 = load i32* getelementptr inbounds (%struct.dim3* @threadIdx, i32 0, i32 0), align 4, !dbg !2789
  %add = add i32 %mul, %2, !dbg !2789
  store i32 %add, i32* %id, align 4, !dbg !2789
  %3 = load i32* %src.addr, align 4, !dbg !2791
  %nnodes = getelementptr inbounds %struct.Graph* %this1, i32 0, i32 1, !dbg !2791
  %4 = load i32* %nnodes, align 4, !dbg !2791
  %cmp = icmp ult i32 %3, %4, !dbg !2791
  br i1 %cmp, label %if.then, label %if.end11, !dbg !2791

if.then:                                          ; preds = %entry
  %5 = load i32* %src.addr, align 4, !dbg !2792
  %6 = bitcast i32* %retval.i to i8*
  %7 = bitcast %struct.Graph** %this.addr.i to i8*
  %8 = bitcast i32* %src.addr.i to i8*
  %9 = bitcast i32* %id.i to i8*
  store %struct.Graph* %this1, %struct.Graph** %this.addr.i, align 8
  store i32 %5, i32* %src.addr.i, align 4
  %this1.i = load %struct.Graph** %this.addr.i
  %10 = load i32* %src.addr.i, align 4, !dbg !2794
  %nnodes.i = getelementptr inbounds %struct.Graph* %this1.i, i32 0, i32 1, !dbg !2794
  %11 = load i32* %nnodes.i, align 4, !dbg !2794
  %cmp.i = icmp ult i32 %10, %11, !dbg !2794
  br i1 %cmp.i, label %if.then.i, label %if.end.i, !dbg !2794

if.then.i:                                        ; preds = %if.then
  %12 = load i32* %src.addr.i, align 4, !dbg !2795
  %idxprom.i = zext i32 %12 to i64, !dbg !2795
  %noutgoing.i = getelementptr inbounds %struct.Graph* %this1.i, i32 0, i32 3, !dbg !2795
  %13 = load i32** %noutgoing.i, align 8, !dbg !2795
  %arrayidx.i = getelementptr inbounds i32* %13, i64 %idxprom.i, !dbg !2795
  %14 = load i32* %arrayidx.i, align 4, !dbg !2795
  store i32 %14, i32* %retval.i, !dbg !2795
  br label %_ZN5Graph12getOutDegreeEj.exit, !dbg !2795

if.end.i:                                         ; preds = %if.then
  %15 = load i32* getelementptr inbounds (%struct.dim3* @blockIdx, i32 0, i32 0), align 4, !dbg !2796
  %16 = load i32* getelementptr inbounds (%struct.dim3* @blockDim, i32 0, i32 0), align 4, !dbg !2796
  %mul.i = mul i32 %15, %16, !dbg !2796
  %17 = load i32* getelementptr inbounds (%struct.dim3* @threadIdx, i32 0, i32 0), align 4, !dbg !2796
  %add.i = add i32 %mul.i, %17, !dbg !2796
  store i32 %add.i, i32* %id.i, align 4, !dbg !2796
  %18 = load i32* %id.i, align 4, !dbg !2797
  %19 = load i32* %src.addr.i, align 4, !dbg !2797
  %nnodes2.i = getelementptr inbounds %struct.Graph* %this1.i, i32 0, i32 1, !dbg !2797
  %20 = load i32* %nnodes2.i, align 4, !dbg !2797
  %call.i = call i32 (i8*, ...)* @printf(i8* getelementptr inbounds ([53 x i8]* @.str1, i32 0, i32 0), i8* getelementptr inbounds ([25 x i8]* @.str2, i32 0, i32 0), i32 72, i32 %18, i32 %19, i32 %20), !dbg !2797
  store i32 0, i32* %retval.i, !dbg !2798
  br label %_ZN5Graph12getOutDegreeEj.exit, !dbg !2798

_ZN5Graph12getOutDegreeEj.exit:                   ; preds = %if.end.i, %if.then.i
  %21 = load i32* %retval.i, !dbg !2799
  %22 = bitcast i32* %retval.i to i8*, !dbg !2799
  %23 = bitcast %struct.Graph** %this.addr.i to i8*, !dbg !2799
  %24 = bitcast i32* %src.addr.i to i8*, !dbg !2799
  %25 = bitcast i32* %id.i to i8*, !dbg !2799
  store i32 %21, i32* %srcnout, align 4, !dbg !2792
  %26 = load i32* %srcnout, align 4, !dbg !2800
  %cmp2 = icmp ugt i32 %26, 0, !dbg !2800
  br i1 %cmp2, label %if.then3, label %if.end9, !dbg !2800

if.then3:                                         ; preds = %_ZN5Graph12getOutDegreeEj.exit
  store i32 0, i32* %minedge, align 4, !dbg !2801
  %27 = load i32* %src.addr, align 4, !dbg !2803
  %28 = bitcast i32* %retval.i1 to i8*
  %29 = bitcast %struct.Graph** %this.addr.i2 to i8*
  %30 = bitcast i32* %src.addr.i3 to i8*
  %31 = bitcast i32* %nthedge.addr.i to i8*
  %32 = bitcast i32* %id.i4 to i8*
  %33 = bitcast i32* %edge.i to i8*
  store %struct.Graph* %this1, %struct.Graph** %this.addr.i2, align 8
  store i32 %27, i32* %src.addr.i3, align 4
  store i32 0, i32* %nthedge.addr.i, align 4
  %this1.i5 = load %struct.Graph** %this.addr.i2
  %34 = load i32* getelementptr inbounds (%struct.dim3* @blockIdx, i32 0, i32 0), align 4, !dbg !2804
  %35 = load i32* getelementptr inbounds (%struct.dim3* @blockDim, i32 0, i32 0), align 4, !dbg !2804
  %mul.i6 = mul i32 %34, %35, !dbg !2804
  %36 = load i32* getelementptr inbounds (%struct.dim3* @threadIdx, i32 0, i32 0), align 4, !dbg !2804
  %add.i7 = add i32 %mul.i6, %36, !dbg !2804
  store i32 %add.i7, i32* %id.i4, align 4, !dbg !2804
  %37 = load i32* %src.addr.i3, align 4, !dbg !2805
  %nnodes.i8 = getelementptr inbounds %struct.Graph* %this1.i5, i32 0, i32 1, !dbg !2805
  %38 = load i32* %nnodes.i8, align 4, !dbg !2805
  %cmp.i9 = icmp ult i32 %37, %38, !dbg !2805
  br i1 %cmp.i9, label %land.lhs.true.i, label %if.end9.i, !dbg !2805

land.lhs.true.i:                                  ; preds = %if.then3
  %39 = load i32* %nthedge.addr.i, align 4, !dbg !2805
  %40 = load i32* %src.addr.i3, align 4, !dbg !2805
  %41 = bitcast i32* %retval.i.i to i8*
  %42 = bitcast %struct.Graph** %this.addr.i.i to i8*
  %43 = bitcast i32* %src.addr.i.i to i8*
  %44 = bitcast i32* %id.i.i to i8*
  store %struct.Graph* %this1.i5, %struct.Graph** %this.addr.i.i, align 8
  store i32 %40, i32* %src.addr.i.i, align 4
  %this1.i.i = load %struct.Graph** %this.addr.i.i
  %45 = load i32* %src.addr.i.i, align 4, !dbg !2806
  %nnodes.i.i = getelementptr inbounds %struct.Graph* %this1.i.i, i32 0, i32 1, !dbg !2806
  %46 = load i32* %nnodes.i.i, align 4, !dbg !2806
  %cmp.i.i = icmp ult i32 %45, %46, !dbg !2806
  br i1 %cmp.i.i, label %if.then.i.i, label %if.end.i.i, !dbg !2806

if.then.i.i:                                      ; preds = %land.lhs.true.i
  %47 = load i32* %src.addr.i.i, align 4, !dbg !2807
  %idxprom.i.i = zext i32 %47 to i64, !dbg !2807
  %noutgoing.i.i = getelementptr inbounds %struct.Graph* %this1.i.i, i32 0, i32 3, !dbg !2807
  %48 = load i32** %noutgoing.i.i, align 8, !dbg !2807
  %arrayidx.i.i = getelementptr inbounds i32* %48, i64 %idxprom.i.i, !dbg !2807
  %49 = load i32* %arrayidx.i.i, align 4, !dbg !2807
  store i32 %49, i32* %retval.i.i, !dbg !2807
  br label %_ZN5Graph12getOutDegreeEj.exit.i, !dbg !2807

if.end.i.i:                                       ; preds = %land.lhs.true.i
  %50 = load i32* getelementptr inbounds (%struct.dim3* @blockIdx, i32 0, i32 0), align 4, !dbg !2808
  %51 = load i32* getelementptr inbounds (%struct.dim3* @blockDim, i32 0, i32 0), align 4, !dbg !2808
  %mul.i.i = mul i32 %50, %51, !dbg !2808
  %52 = load i32* getelementptr inbounds (%struct.dim3* @threadIdx, i32 0, i32 0), align 4, !dbg !2808
  %add.i.i = add i32 %mul.i.i, %52, !dbg !2808
  store i32 %add.i.i, i32* %id.i.i, align 4, !dbg !2808
  %53 = load i32* %id.i.i, align 4, !dbg !2809
  %54 = load i32* %src.addr.i.i, align 4, !dbg !2809
  %nnodes2.i.i = getelementptr inbounds %struct.Graph* %this1.i.i, i32 0, i32 1, !dbg !2809
  %55 = load i32* %nnodes2.i.i, align 4, !dbg !2809
  %call.i.i = call i32 (i8*, ...)* @printf(i8* getelementptr inbounds ([53 x i8]* @.str1, i32 0, i32 0), i8* getelementptr inbounds ([25 x i8]* @.str2, i32 0, i32 0), i32 72, i32 %53, i32 %54, i32 %55), !dbg !2809
  store i32 0, i32* %retval.i.i, !dbg !2810
  br label %_ZN5Graph12getOutDegreeEj.exit.i, !dbg !2810

_ZN5Graph12getOutDegreeEj.exit.i:                 ; preds = %if.end.i.i, %if.then.i.i
  %56 = load i32* %retval.i.i, !dbg !2811
  %57 = bitcast i32* %retval.i.i to i8*, !dbg !2811
  %58 = bitcast %struct.Graph** %this.addr.i.i to i8*, !dbg !2811
  %59 = bitcast i32* %src.addr.i.i to i8*, !dbg !2811
  %60 = bitcast i32* %id.i.i to i8*, !dbg !2811
  %cmp2.i = icmp ult i32 %39, %56, !dbg !2805
  br i1 %cmp2.i, label %if.then.i10, label %if.end9.i, !dbg !2805

if.then.i10:                                      ; preds = %_ZN5Graph12getOutDegreeEj.exit.i
  %61 = load i32* %src.addr.i3, align 4, !dbg !2812
  %62 = bitcast i32* %retval.i1.i to i8*
  %63 = bitcast %struct.Graph** %this.addr.i2.i to i8*
  %64 = bitcast i32* %src.addr.i3.i to i8*
  %65 = bitcast i32* %id.i4.i to i8*
  %66 = bitcast i32* %srcnout.i.i to i8*
  store %struct.Graph* %this1.i5, %struct.Graph** %this.addr.i2.i, align 8
  store i32 %61, i32* %src.addr.i3.i, align 4
  %this1.i5.i = load %struct.Graph** %this.addr.i2.i
  %67 = load i32* getelementptr inbounds (%struct.dim3* @blockIdx, i32 0, i32 0), align 4, !dbg !2813
  %68 = load i32* getelementptr inbounds (%struct.dim3* @blockDim, i32 0, i32 0), align 4, !dbg !2813
  %mul.i6.i = mul i32 %67, %68, !dbg !2813
  %69 = load i32* getelementptr inbounds (%struct.dim3* @threadIdx, i32 0, i32 0), align 4, !dbg !2813
  %add.i7.i = add i32 %mul.i6.i, %69, !dbg !2813
  store i32 %add.i7.i, i32* %id.i4.i, align 4, !dbg !2813
  %70 = load i32* %src.addr.i3.i, align 4, !dbg !2814
  %nnodes.i8.i = getelementptr inbounds %struct.Graph* %this1.i5.i, i32 0, i32 1, !dbg !2814
  %71 = load i32* %nnodes.i8.i, align 4, !dbg !2814
  %cmp.i9.i = icmp ult i32 %70, %71, !dbg !2814
  br i1 %cmp.i9.i, label %if.then.i10.i, label %if.end12.i.i, !dbg !2814

if.then.i10.i:                                    ; preds = %if.then.i10
  %72 = load i32* %src.addr.i3.i, align 4, !dbg !2815
  %73 = bitcast i32* %retval.i.i.i to i8*
  %74 = bitcast %struct.Graph** %this.addr.i.i.i to i8*
  %75 = bitcast i32* %src.addr.i.i.i to i8*
  %76 = bitcast i32* %id.i.i.i to i8*
  store %struct.Graph* %this1.i5.i, %struct.Graph** %this.addr.i.i.i, align 8
  store i32 %72, i32* %src.addr.i.i.i, align 4
  %this1.i.i.i = load %struct.Graph** %this.addr.i.i.i
  %77 = load i32* %src.addr.i.i.i, align 4, !dbg !2816
  %nnodes.i.i.i = getelementptr inbounds %struct.Graph* %this1.i.i.i, i32 0, i32 1, !dbg !2816
  %78 = load i32* %nnodes.i.i.i, align 4, !dbg !2816
  %cmp.i.i.i = icmp ult i32 %77, %78, !dbg !2816
  br i1 %cmp.i.i.i, label %if.then.i.i.i, label %if.end.i.i.i, !dbg !2816

if.then.i.i.i:                                    ; preds = %if.then.i10.i
  %79 = load i32* %src.addr.i.i.i, align 4, !dbg !2817
  %idxprom.i.i.i = zext i32 %79 to i64, !dbg !2817
  %noutgoing.i.i.i = getelementptr inbounds %struct.Graph* %this1.i.i.i, i32 0, i32 3, !dbg !2817
  %80 = load i32** %noutgoing.i.i.i, align 8, !dbg !2817
  %arrayidx.i.i.i = getelementptr inbounds i32* %80, i64 %idxprom.i.i.i, !dbg !2817
  %81 = load i32* %arrayidx.i.i.i, align 4, !dbg !2817
  store i32 %81, i32* %retval.i.i.i, !dbg !2817
  br label %_ZN5Graph12getOutDegreeEj.exit.i.i, !dbg !2817

if.end.i.i.i:                                     ; preds = %if.then.i10.i
  %82 = load i32* getelementptr inbounds (%struct.dim3* @blockIdx, i32 0, i32 0), align 4, !dbg !2818
  %83 = load i32* getelementptr inbounds (%struct.dim3* @blockDim, i32 0, i32 0), align 4, !dbg !2818
  %mul.i.i.i = mul i32 %82, %83, !dbg !2818
  %84 = load i32* getelementptr inbounds (%struct.dim3* @threadIdx, i32 0, i32 0), align 4, !dbg !2818
  %add.i.i.i = add i32 %mul.i.i.i, %84, !dbg !2818
  store i32 %add.i.i.i, i32* %id.i.i.i, align 4, !dbg !2818
  %85 = load i32* %id.i.i.i, align 4, !dbg !2819
  %86 = load i32* %src.addr.i.i.i, align 4, !dbg !2819
  %nnodes2.i.i.i = getelementptr inbounds %struct.Graph* %this1.i.i.i, i32 0, i32 1, !dbg !2819
  %87 = load i32* %nnodes2.i.i.i, align 4, !dbg !2819
  %call.i.i.i = call i32 (i8*, ...)* @printf(i8* getelementptr inbounds ([53 x i8]* @.str1, i32 0, i32 0), i8* getelementptr inbounds ([25 x i8]* @.str2, i32 0, i32 0), i32 72, i32 %85, i32 %86, i32 %87), !dbg !2819
  store i32 0, i32* %retval.i.i.i, !dbg !2820
  br label %_ZN5Graph12getOutDegreeEj.exit.i.i, !dbg !2820

_ZN5Graph12getOutDegreeEj.exit.i.i:               ; preds = %if.end.i.i.i, %if.then.i.i.i
  %88 = load i32* %retval.i.i.i, !dbg !2821
  %89 = bitcast i32* %retval.i.i.i to i8*, !dbg !2821
  %90 = bitcast %struct.Graph** %this.addr.i.i.i to i8*, !dbg !2821
  %91 = bitcast i32* %src.addr.i.i.i to i8*, !dbg !2821
  %92 = bitcast i32* %id.i.i.i to i8*, !dbg !2821
  store i32 %88, i32* %srcnout.i.i, align 4, !dbg !2815
  %93 = load i32* %srcnout.i.i, align 4, !dbg !2822
  %cmp2.i.i = icmp ugt i32 %93, 0, !dbg !2822
  br i1 %cmp2.i.i, label %land.lhs.true.i.i, label %if.end.i13.i, !dbg !2822

land.lhs.true.i.i:                                ; preds = %_ZN5Graph12getOutDegreeEj.exit.i.i
  %94 = load i32* %src.addr.i3.i, align 4, !dbg !2822
  %idxprom.i11.i = zext i32 %94 to i64, !dbg !2822
  %srcsrc.i.i = getelementptr inbounds %struct.Graph* %this1.i5.i, i32 0, i32 5, !dbg !2822
  %95 = load i32** %srcsrc.i.i, align 8, !dbg !2822
  %arrayidx.i12.i = getelementptr inbounds i32* %95, i64 %idxprom.i11.i, !dbg !2822
  %96 = load i32* %arrayidx.i12.i, align 4, !dbg !2822
  %nnodes3.i.i = getelementptr inbounds %struct.Graph* %this1.i5.i, i32 0, i32 1, !dbg !2822
  %97 = load i32* %nnodes3.i.i, align 4, !dbg !2822
  %cmp4.i.i = icmp ult i32 %96, %97, !dbg !2822
  br i1 %cmp4.i.i, label %if.then5.i.i, label %if.end.i13.i, !dbg !2822

if.then5.i.i:                                     ; preds = %land.lhs.true.i.i
  %98 = load i32* %src.addr.i3.i, align 4, !dbg !2823
  %idxprom6.i.i = zext i32 %98 to i64, !dbg !2823
  %srcsrc7.i.i = getelementptr inbounds %struct.Graph* %this1.i5.i, i32 0, i32 5, !dbg !2823
  %99 = load i32** %srcsrc7.i.i, align 8, !dbg !2823
  %arrayidx8.i.i = getelementptr inbounds i32* %99, i64 %idxprom6.i.i, !dbg !2823
  %100 = load i32* %arrayidx8.i.i, align 4, !dbg !2823
  %idxprom9.i.i = zext i32 %100 to i64, !dbg !2823
  %psrc.i.i = getelementptr inbounds %struct.Graph* %this1.i5.i, i32 0, i32 6, !dbg !2823
  %101 = load i32** %psrc.i.i, align 8, !dbg !2823
  %arrayidx10.i.i = getelementptr inbounds i32* %101, i64 %idxprom9.i.i, !dbg !2823
  %102 = load i32* %arrayidx10.i.i, align 4, !dbg !2823
  store i32 %102, i32* %retval.i1.i, !dbg !2823
  br label %_ZN5Graph12getFirstEdgeEj.exit.i, !dbg !2823

if.end.i13.i:                                     ; preds = %land.lhs.true.i.i, %_ZN5Graph12getOutDegreeEj.exit.i.i
  %103 = load i32* %id.i4.i, align 4, !dbg !2824
  %104 = load i32* %srcnout.i.i, align 4, !dbg !2824
  %call11.i.i = call i32 (i8*, ...)* @printf(i8* getelementptr inbounds ([53 x i8]* @.str4, i32 0, i32 0), i8* getelementptr inbounds ([25 x i8]* @.str2, i32 0, i32 0), i32 126, i32 %103, i32 0, i32 %104), !dbg !2824
  store i32 0, i32* %retval.i1.i, !dbg !2825
  br label %_ZN5Graph12getFirstEdgeEj.exit.i, !dbg !2825

if.end12.i.i:                                     ; preds = %if.then.i10
  %105 = load i32* %id.i4.i, align 4, !dbg !2826
  %106 = load i32* %src.addr.i3.i, align 4, !dbg !2826
  %nnodes13.i.i = getelementptr inbounds %struct.Graph* %this1.i5.i, i32 0, i32 1, !dbg !2826
  %107 = load i32* %nnodes13.i.i, align 4, !dbg !2826
  %call14.i.i = call i32 (i8*, ...)* @printf(i8* getelementptr inbounds ([53 x i8]* @.str1, i32 0, i32 0), i8* getelementptr inbounds ([25 x i8]* @.str2, i32 0, i32 0), i32 129, i32 %105, i32 %106, i32 %107), !dbg !2826
  store i32 0, i32* %retval.i1.i, !dbg !2827
  br label %_ZN5Graph12getFirstEdgeEj.exit.i, !dbg !2827

_ZN5Graph12getFirstEdgeEj.exit.i:                 ; preds = %if.end12.i.i, %if.end.i13.i, %if.then5.i.i
  %108 = load i32* %retval.i1.i, !dbg !2828
  %109 = bitcast i32* %retval.i1.i to i8*, !dbg !2828
  %110 = bitcast %struct.Graph** %this.addr.i2.i to i8*, !dbg !2828
  %111 = bitcast i32* %src.addr.i3.i to i8*, !dbg !2828
  %112 = bitcast i32* %id.i4.i to i8*, !dbg !2828
  %113 = bitcast i32* %srcnout.i.i to i8*, !dbg !2828
  %114 = load i32* %nthedge.addr.i, align 4, !dbg !2812
  %add4.i = add i32 %108, %114, !dbg !2812
  store i32 %add4.i, i32* %edge.i, align 4, !dbg !2812
  %115 = load i32* %edge.i, align 4, !dbg !2829
  %tobool.i = icmp ne i32 %115, 0, !dbg !2829
  br i1 %tobool.i, label %land.lhs.true5.i, label %if.end.i13, !dbg !2829

land.lhs.true5.i:                                 ; preds = %_ZN5Graph12getFirstEdgeEj.exit.i
  %116 = load i32* %edge.i, align 4, !dbg !2829
  %nedges.i = getelementptr inbounds %struct.Graph* %this1.i5, i32 0, i32 2, !dbg !2829
  %117 = load i32* %nedges.i, align 4, !dbg !2829
  %add6.i = add i32 %117, 1, !dbg !2829
  %cmp7.i = icmp ult i32 %116, %add6.i, !dbg !2829
  br i1 %cmp7.i, label %if.then8.i, label %if.end.i13, !dbg !2829

if.then8.i:                                       ; preds = %land.lhs.true5.i
  %118 = load i32* %edge.i, align 4, !dbg !2830
  %idxprom.i11 = zext i32 %118 to i64, !dbg !2830
  %edgessrcwt.i = getelementptr inbounds %struct.Graph* %this1.i5, i32 0, i32 8, !dbg !2830
  %119 = load i32** %edgessrcwt.i, align 8, !dbg !2830
  %arrayidx.i12 = getelementptr inbounds i32* %119, i64 %idxprom.i11, !dbg !2830
  %120 = load i32* %arrayidx.i12, align 4, !dbg !2830
  store i32 %120, i32* %retval.i1, !dbg !2830
  br label %_ZN5Graph9getWeightEjj.exit, !dbg !2830

if.end.i13:                                       ; preds = %land.lhs.true5.i, %_ZN5Graph12getFirstEdgeEj.exit.i
  store i32 1000000000, i32* %retval.i1, !dbg !2831
  br label %_ZN5Graph9getWeightEjj.exit, !dbg !2831

if.end9.i:                                        ; preds = %_ZN5Graph12getOutDegreeEj.exit.i, %if.then3
  %121 = load i32* %src.addr.i3, align 4, !dbg !2832
  %nnodes10.i = getelementptr inbounds %struct.Graph* %this1.i5, i32 0, i32 1, !dbg !2832
  %122 = load i32* %nnodes10.i, align 4, !dbg !2832
  %cmp11.i = icmp ult i32 %121, %122, !dbg !2832
  %123 = load i32* %id.i4, align 4, !dbg !2833
  %124 = load i32* %src.addr.i3, align 4, !dbg !2833
  br i1 %cmp11.i, label %if.then12.i, label %if.else.i, !dbg !2832

if.then12.i:                                      ; preds = %if.end9.i
  %125 = load i32* %nthedge.addr.i, align 4, !dbg !2833
  %126 = load i32* %src.addr.i3, align 4, !dbg !2833
  %127 = bitcast i32* %retval.i14.i to i8*
  %128 = bitcast %struct.Graph** %this.addr.i15.i to i8*
  %129 = bitcast i32* %src.addr.i16.i to i8*
  %130 = bitcast i32* %id.i17.i to i8*
  store %struct.Graph* %this1.i5, %struct.Graph** %this.addr.i15.i, align 8
  store i32 %126, i32* %src.addr.i16.i, align 4
  %this1.i18.i = load %struct.Graph** %this.addr.i15.i
  %131 = load i32* %src.addr.i16.i, align 4, !dbg !2834
  %nnodes.i19.i = getelementptr inbounds %struct.Graph* %this1.i18.i, i32 0, i32 1, !dbg !2834
  %132 = load i32* %nnodes.i19.i, align 4, !dbg !2834
  %cmp.i20.i = icmp ult i32 %131, %132, !dbg !2834
  br i1 %cmp.i20.i, label %if.then.i24.i, label %if.end.i29.i, !dbg !2834

if.then.i24.i:                                    ; preds = %if.then12.i
  %133 = load i32* %src.addr.i16.i, align 4, !dbg !2835
  %idxprom.i21.i = zext i32 %133 to i64, !dbg !2835
  %noutgoing.i22.i = getelementptr inbounds %struct.Graph* %this1.i18.i, i32 0, i32 3, !dbg !2835
  %134 = load i32** %noutgoing.i22.i, align 8, !dbg !2835
  %arrayidx.i23.i = getelementptr inbounds i32* %134, i64 %idxprom.i21.i, !dbg !2835
  %135 = load i32* %arrayidx.i23.i, align 4, !dbg !2835
  store i32 %135, i32* %retval.i14.i, !dbg !2835
  br label %_ZN5Graph12getOutDegreeEj.exit30.i, !dbg !2835

if.end.i29.i:                                     ; preds = %if.then12.i
  %136 = load i32* getelementptr inbounds (%struct.dim3* @blockIdx, i32 0, i32 0), align 4, !dbg !2836
  %137 = load i32* getelementptr inbounds (%struct.dim3* @blockDim, i32 0, i32 0), align 4, !dbg !2836
  %mul.i25.i = mul i32 %136, %137, !dbg !2836
  %138 = load i32* getelementptr inbounds (%struct.dim3* @threadIdx, i32 0, i32 0), align 4, !dbg !2836
  %add.i26.i = add i32 %mul.i25.i, %138, !dbg !2836
  store i32 %add.i26.i, i32* %id.i17.i, align 4, !dbg !2836
  %139 = load i32* %id.i17.i, align 4, !dbg !2837
  %140 = load i32* %src.addr.i16.i, align 4, !dbg !2837
  %nnodes2.i27.i = getelementptr inbounds %struct.Graph* %this1.i18.i, i32 0, i32 1, !dbg !2837
  %141 = load i32* %nnodes2.i27.i, align 4, !dbg !2837
  %call.i28.i = call i32 (i8*, ...)* @printf(i8* getelementptr inbounds ([53 x i8]* @.str1, i32 0, i32 0), i8* getelementptr inbounds ([25 x i8]* @.str2, i32 0, i32 0), i32 72, i32 %139, i32 %140, i32 %141), !dbg !2837
  store i32 0, i32* %retval.i14.i, !dbg !2838
  br label %_ZN5Graph12getOutDegreeEj.exit30.i, !dbg !2838

_ZN5Graph12getOutDegreeEj.exit30.i:               ; preds = %if.end.i29.i, %if.then.i24.i
  %142 = load i32* %retval.i14.i, !dbg !2839
  %143 = bitcast i32* %retval.i14.i to i8*, !dbg !2839
  %144 = bitcast %struct.Graph** %this.addr.i15.i to i8*, !dbg !2839
  %145 = bitcast i32* %src.addr.i16.i to i8*, !dbg !2839
  %146 = bitcast i32* %id.i17.i to i8*, !dbg !2839
  %call14.i = call i32 (i8*, ...)* @printf(i8* getelementptr inbounds ([62 x i8]* @.str3, i32 0, i32 0), i8* getelementptr inbounds ([25 x i8]* @.str2, i32 0, i32 0), i32 111, i32 %123, i32 %124, i32 %125, i32 %142), !dbg !2833
  br label %if.end17.i, !dbg !2840

if.else.i:                                        ; preds = %if.end9.i
  %nnodes15.i = getelementptr inbounds %struct.Graph* %this1.i5, i32 0, i32 1, !dbg !2841
  %147 = load i32* %nnodes15.i, align 4, !dbg !2841
  %call16.i = call i32 (i8*, ...)* @printf(i8* getelementptr inbounds ([53 x i8]* @.str1, i32 0, i32 0), i8* getelementptr inbounds ([25 x i8]* @.str2, i32 0, i32 0), i32 113, i32 %123, i32 %124, i32 %147), !dbg !2841
  br label %if.end17.i

if.end17.i:                                       ; preds = %if.else.i, %_ZN5Graph12getOutDegreeEj.exit30.i
  store i32 1000000000, i32* %retval.i1, !dbg !2842
  br label %_ZN5Graph9getWeightEjj.exit, !dbg !2842

_ZN5Graph9getWeightEjj.exit:                      ; preds = %if.end17.i, %if.end.i13, %if.then8.i
  %148 = load i32* %retval.i1, !dbg !2843
  %149 = bitcast i32* %retval.i1 to i8*, !dbg !2843
  %150 = bitcast %struct.Graph** %this.addr.i2 to i8*, !dbg !2843
  %151 = bitcast i32* %src.addr.i3 to i8*, !dbg !2843
  %152 = bitcast i32* %nthedge.addr.i to i8*, !dbg !2843
  %153 = bitcast i32* %id.i4 to i8*, !dbg !2843
  %154 = bitcast i32* %edge.i to i8*, !dbg !2843
  store i32 %148, i32* %minwt, align 4, !dbg !2803
  store i32 1, i32* %ii, align 4, !dbg !2844
  br label %for.cond, !dbg !2844

for.cond:                                         ; preds = %for.inc, %_ZN5Graph9getWeightEjj.exit
  %155 = load i32* %ii, align 4, !dbg !2844
  %156 = load i32* %srcnout, align 4, !dbg !2844
  %cmp5 = icmp ult i32 %155, %156, !dbg !2844
  br i1 %cmp5, label %for.body, label %for.end, !dbg !2844

for.body:                                         ; preds = %for.cond
  %157 = load i32* %src.addr, align 4, !dbg !2846
  %158 = load i32* %ii, align 4, !dbg !2846
  %159 = bitcast i32* %retval.i31 to i8*
  %160 = bitcast %struct.Graph** %this.addr.i32 to i8*
  %161 = bitcast i32* %src.addr.i33 to i8*
  %162 = bitcast i32* %nthedge.addr.i34 to i8*
  %163 = bitcast i32* %id.i35 to i8*
  %164 = bitcast i32* %edge.i36 to i8*
  store %struct.Graph* %this1, %struct.Graph** %this.addr.i32, align 8
  store i32 %157, i32* %src.addr.i33, align 4
  store i32 %158, i32* %nthedge.addr.i34, align 4
  %this1.i37 = load %struct.Graph** %this.addr.i32
  %165 = load i32* getelementptr inbounds (%struct.dim3* @blockIdx, i32 0, i32 0), align 4, !dbg !2848
  %166 = load i32* getelementptr inbounds (%struct.dim3* @blockDim, i32 0, i32 0), align 4, !dbg !2848
  %mul.i38 = mul i32 %165, %166, !dbg !2848
  %167 = load i32* getelementptr inbounds (%struct.dim3* @threadIdx, i32 0, i32 0), align 4, !dbg !2848
  %add.i39 = add i32 %mul.i38, %167, !dbg !2848
  store i32 %add.i39, i32* %id.i35, align 4, !dbg !2848
  %168 = load i32* %src.addr.i33, align 4, !dbg !2849
  %nnodes.i40 = getelementptr inbounds %struct.Graph* %this1.i37, i32 0, i32 1, !dbg !2849
  %169 = load i32* %nnodes.i40, align 4, !dbg !2849
  %cmp.i41 = icmp ult i32 %168, %169, !dbg !2849
  br i1 %cmp.i41, label %land.lhs.true.i45, label %if.end9.i110, !dbg !2849

land.lhs.true.i45:                                ; preds = %for.body
  %170 = load i32* %nthedge.addr.i34, align 4, !dbg !2849
  %171 = load i32* %src.addr.i33, align 4, !dbg !2849
  %172 = bitcast i32* %retval.i.i27 to i8*
  %173 = bitcast %struct.Graph** %this.addr.i.i28 to i8*
  %174 = bitcast i32* %src.addr.i.i29 to i8*
  %175 = bitcast i32* %id.i.i30 to i8*
  store %struct.Graph* %this1.i37, %struct.Graph** %this.addr.i.i28, align 8
  store i32 %171, i32* %src.addr.i.i29, align 4
  %this1.i.i42 = load %struct.Graph** %this.addr.i.i28
  %176 = load i32* %src.addr.i.i29, align 4, !dbg !2850
  %nnodes.i.i43 = getelementptr inbounds %struct.Graph* %this1.i.i42, i32 0, i32 1, !dbg !2850
  %177 = load i32* %nnodes.i.i43, align 4, !dbg !2850
  %cmp.i.i44 = icmp ult i32 %176, %177, !dbg !2850
  br i1 %cmp.i.i44, label %if.then.i.i49, label %if.end.i.i54, !dbg !2850

if.then.i.i49:                                    ; preds = %land.lhs.true.i45
  %178 = load i32* %src.addr.i.i29, align 4, !dbg !2851
  %idxprom.i.i46 = zext i32 %178 to i64, !dbg !2851
  %noutgoing.i.i47 = getelementptr inbounds %struct.Graph* %this1.i.i42, i32 0, i32 3, !dbg !2851
  %179 = load i32** %noutgoing.i.i47, align 8, !dbg !2851
  %arrayidx.i.i48 = getelementptr inbounds i32* %179, i64 %idxprom.i.i46, !dbg !2851
  %180 = load i32* %arrayidx.i.i48, align 4, !dbg !2851
  store i32 %180, i32* %retval.i.i27, !dbg !2851
  br label %_ZN5Graph12getOutDegreeEj.exit.i56, !dbg !2851

if.end.i.i54:                                     ; preds = %land.lhs.true.i45
  %181 = load i32* getelementptr inbounds (%struct.dim3* @blockIdx, i32 0, i32 0), align 4, !dbg !2852
  %182 = load i32* getelementptr inbounds (%struct.dim3* @blockDim, i32 0, i32 0), align 4, !dbg !2852
  %mul.i.i50 = mul i32 %181, %182, !dbg !2852
  %183 = load i32* getelementptr inbounds (%struct.dim3* @threadIdx, i32 0, i32 0), align 4, !dbg !2852
  %add.i.i51 = add i32 %mul.i.i50, %183, !dbg !2852
  store i32 %add.i.i51, i32* %id.i.i30, align 4, !dbg !2852
  %184 = load i32* %id.i.i30, align 4, !dbg !2853
  %185 = load i32* %src.addr.i.i29, align 4, !dbg !2853
  %nnodes2.i.i52 = getelementptr inbounds %struct.Graph* %this1.i.i42, i32 0, i32 1, !dbg !2853
  %186 = load i32* %nnodes2.i.i52, align 4, !dbg !2853
  %call.i.i53 = call i32 (i8*, ...)* @printf(i8* getelementptr inbounds ([53 x i8]* @.str1, i32 0, i32 0), i8* getelementptr inbounds ([25 x i8]* @.str2, i32 0, i32 0), i32 72, i32 %184, i32 %185, i32 %186), !dbg !2853
  store i32 0, i32* %retval.i.i27, !dbg !2854
  br label %_ZN5Graph12getOutDegreeEj.exit.i56, !dbg !2854

_ZN5Graph12getOutDegreeEj.exit.i56:               ; preds = %if.end.i.i54, %if.then.i.i49
  %187 = load i32* %retval.i.i27, !dbg !2855
  %188 = bitcast i32* %retval.i.i27 to i8*, !dbg !2855
  %189 = bitcast %struct.Graph** %this.addr.i.i28 to i8*, !dbg !2855
  %190 = bitcast i32* %src.addr.i.i29 to i8*, !dbg !2855
  %191 = bitcast i32* %id.i.i30 to i8*, !dbg !2855
  %cmp2.i55 = icmp ult i32 %170, %187, !dbg !2849
  br i1 %cmp2.i55, label %if.then.i62, label %if.end9.i110, !dbg !2849

if.then.i62:                                      ; preds = %_ZN5Graph12getOutDegreeEj.exit.i56
  %192 = load i32* %src.addr.i33, align 4, !dbg !2856
  %193 = bitcast i32* %retval.i1.i22 to i8*
  %194 = bitcast %struct.Graph** %this.addr.i2.i23 to i8*
  %195 = bitcast i32* %src.addr.i3.i24 to i8*
  %196 = bitcast i32* %id.i4.i25 to i8*
  %197 = bitcast i32* %srcnout.i.i26 to i8*
  store %struct.Graph* %this1.i37, %struct.Graph** %this.addr.i2.i23, align 8
  store i32 %192, i32* %src.addr.i3.i24, align 4
  %this1.i5.i57 = load %struct.Graph** %this.addr.i2.i23
  %198 = load i32* getelementptr inbounds (%struct.dim3* @blockIdx, i32 0, i32 0), align 4, !dbg !2857
  %199 = load i32* getelementptr inbounds (%struct.dim3* @blockDim, i32 0, i32 0), align 4, !dbg !2857
  %mul.i6.i58 = mul i32 %198, %199, !dbg !2857
  %200 = load i32* getelementptr inbounds (%struct.dim3* @threadIdx, i32 0, i32 0), align 4, !dbg !2857
  %add.i7.i59 = add i32 %mul.i6.i58, %200, !dbg !2857
  store i32 %add.i7.i59, i32* %id.i4.i25, align 4, !dbg !2857
  %201 = load i32* %src.addr.i3.i24, align 4, !dbg !2858
  %nnodes.i8.i60 = getelementptr inbounds %struct.Graph* %this1.i5.i57, i32 0, i32 1, !dbg !2858
  %202 = load i32* %nnodes.i8.i60, align 4, !dbg !2858
  %cmp.i9.i61 = icmp ult i32 %201, %202, !dbg !2858
  br i1 %cmp.i9.i61, label %if.then.i10.i66, label %if.end12.i.i95, !dbg !2858

if.then.i10.i66:                                  ; preds = %if.then.i62
  %203 = load i32* %src.addr.i3.i24, align 4, !dbg !2859
  %204 = bitcast i32* %retval.i.i.i18 to i8*
  %205 = bitcast %struct.Graph** %this.addr.i.i.i19 to i8*
  %206 = bitcast i32* %src.addr.i.i.i20 to i8*
  %207 = bitcast i32* %id.i.i.i21 to i8*
  store %struct.Graph* %this1.i5.i57, %struct.Graph** %this.addr.i.i.i19, align 8
  store i32 %203, i32* %src.addr.i.i.i20, align 4
  %this1.i.i.i63 = load %struct.Graph** %this.addr.i.i.i19
  %208 = load i32* %src.addr.i.i.i20, align 4, !dbg !2860
  %nnodes.i.i.i64 = getelementptr inbounds %struct.Graph* %this1.i.i.i63, i32 0, i32 1, !dbg !2860
  %209 = load i32* %nnodes.i.i.i64, align 4, !dbg !2860
  %cmp.i.i.i65 = icmp ult i32 %208, %209, !dbg !2860
  br i1 %cmp.i.i.i65, label %if.then.i.i.i70, label %if.end.i.i.i75, !dbg !2860

if.then.i.i.i70:                                  ; preds = %if.then.i10.i66
  %210 = load i32* %src.addr.i.i.i20, align 4, !dbg !2861
  %idxprom.i.i.i67 = zext i32 %210 to i64, !dbg !2861
  %noutgoing.i.i.i68 = getelementptr inbounds %struct.Graph* %this1.i.i.i63, i32 0, i32 3, !dbg !2861
  %211 = load i32** %noutgoing.i.i.i68, align 8, !dbg !2861
  %arrayidx.i.i.i69 = getelementptr inbounds i32* %211, i64 %idxprom.i.i.i67, !dbg !2861
  %212 = load i32* %arrayidx.i.i.i69, align 4, !dbg !2861
  store i32 %212, i32* %retval.i.i.i18, !dbg !2861
  br label %_ZN5Graph12getOutDegreeEj.exit.i.i77, !dbg !2861

if.end.i.i.i75:                                   ; preds = %if.then.i10.i66
  %213 = load i32* getelementptr inbounds (%struct.dim3* @blockIdx, i32 0, i32 0), align 4, !dbg !2862
  %214 = load i32* getelementptr inbounds (%struct.dim3* @blockDim, i32 0, i32 0), align 4, !dbg !2862
  %mul.i.i.i71 = mul i32 %213, %214, !dbg !2862
  %215 = load i32* getelementptr inbounds (%struct.dim3* @threadIdx, i32 0, i32 0), align 4, !dbg !2862
  %add.i.i.i72 = add i32 %mul.i.i.i71, %215, !dbg !2862
  store i32 %add.i.i.i72, i32* %id.i.i.i21, align 4, !dbg !2862
  %216 = load i32* %id.i.i.i21, align 4, !dbg !2863
  %217 = load i32* %src.addr.i.i.i20, align 4, !dbg !2863
  %nnodes2.i.i.i73 = getelementptr inbounds %struct.Graph* %this1.i.i.i63, i32 0, i32 1, !dbg !2863
  %218 = load i32* %nnodes2.i.i.i73, align 4, !dbg !2863
  %call.i.i.i74 = call i32 (i8*, ...)* @printf(i8* getelementptr inbounds ([53 x i8]* @.str1, i32 0, i32 0), i8* getelementptr inbounds ([25 x i8]* @.str2, i32 0, i32 0), i32 72, i32 %216, i32 %217, i32 %218), !dbg !2863
  store i32 0, i32* %retval.i.i.i18, !dbg !2864
  br label %_ZN5Graph12getOutDegreeEj.exit.i.i77, !dbg !2864

_ZN5Graph12getOutDegreeEj.exit.i.i77:             ; preds = %if.end.i.i.i75, %if.then.i.i.i70
  %219 = load i32* %retval.i.i.i18, !dbg !2865
  %220 = bitcast i32* %retval.i.i.i18 to i8*, !dbg !2865
  %221 = bitcast %struct.Graph** %this.addr.i.i.i19 to i8*, !dbg !2865
  %222 = bitcast i32* %src.addr.i.i.i20 to i8*, !dbg !2865
  %223 = bitcast i32* %id.i.i.i21 to i8*, !dbg !2865
  store i32 %219, i32* %srcnout.i.i26, align 4, !dbg !2859
  %224 = load i32* %srcnout.i.i26, align 4, !dbg !2866
  %cmp2.i.i76 = icmp ugt i32 %224, 0, !dbg !2866
  br i1 %cmp2.i.i76, label %land.lhs.true.i.i83, label %if.end.i13.i92, !dbg !2866

land.lhs.true.i.i83:                              ; preds = %_ZN5Graph12getOutDegreeEj.exit.i.i77
  %225 = load i32* %src.addr.i3.i24, align 4, !dbg !2866
  %idxprom.i11.i78 = zext i32 %225 to i64, !dbg !2866
  %srcsrc.i.i79 = getelementptr inbounds %struct.Graph* %this1.i5.i57, i32 0, i32 5, !dbg !2866
  %226 = load i32** %srcsrc.i.i79, align 8, !dbg !2866
  %arrayidx.i12.i80 = getelementptr inbounds i32* %226, i64 %idxprom.i11.i78, !dbg !2866
  %227 = load i32* %arrayidx.i12.i80, align 4, !dbg !2866
  %nnodes3.i.i81 = getelementptr inbounds %struct.Graph* %this1.i5.i57, i32 0, i32 1, !dbg !2866
  %228 = load i32* %nnodes3.i.i81, align 4, !dbg !2866
  %cmp4.i.i82 = icmp ult i32 %227, %228, !dbg !2866
  br i1 %cmp4.i.i82, label %if.then5.i.i90, label %if.end.i13.i92, !dbg !2866

if.then5.i.i90:                                   ; preds = %land.lhs.true.i.i83
  %229 = load i32* %src.addr.i3.i24, align 4, !dbg !2867
  %idxprom6.i.i84 = zext i32 %229 to i64, !dbg !2867
  %srcsrc7.i.i85 = getelementptr inbounds %struct.Graph* %this1.i5.i57, i32 0, i32 5, !dbg !2867
  %230 = load i32** %srcsrc7.i.i85, align 8, !dbg !2867
  %arrayidx8.i.i86 = getelementptr inbounds i32* %230, i64 %idxprom6.i.i84, !dbg !2867
  %231 = load i32* %arrayidx8.i.i86, align 4, !dbg !2867
  %idxprom9.i.i87 = zext i32 %231 to i64, !dbg !2867
  %psrc.i.i88 = getelementptr inbounds %struct.Graph* %this1.i5.i57, i32 0, i32 6, !dbg !2867
  %232 = load i32** %psrc.i.i88, align 8, !dbg !2867
  %arrayidx10.i.i89 = getelementptr inbounds i32* %232, i64 %idxprom9.i.i87, !dbg !2867
  %233 = load i32* %arrayidx10.i.i89, align 4, !dbg !2867
  store i32 %233, i32* %retval.i1.i22, !dbg !2867
  br label %_ZN5Graph12getFirstEdgeEj.exit.i98, !dbg !2867

if.end.i13.i92:                                   ; preds = %land.lhs.true.i.i83, %_ZN5Graph12getOutDegreeEj.exit.i.i77
  %234 = load i32* %id.i4.i25, align 4, !dbg !2868
  %235 = load i32* %srcnout.i.i26, align 4, !dbg !2868
  %call11.i.i91 = call i32 (i8*, ...)* @printf(i8* getelementptr inbounds ([53 x i8]* @.str4, i32 0, i32 0), i8* getelementptr inbounds ([25 x i8]* @.str2, i32 0, i32 0), i32 126, i32 %234, i32 0, i32 %235), !dbg !2868
  store i32 0, i32* %retval.i1.i22, !dbg !2869
  br label %_ZN5Graph12getFirstEdgeEj.exit.i98, !dbg !2869

if.end12.i.i95:                                   ; preds = %if.then.i62
  %236 = load i32* %id.i4.i25, align 4, !dbg !2870
  %237 = load i32* %src.addr.i3.i24, align 4, !dbg !2870
  %nnodes13.i.i93 = getelementptr inbounds %struct.Graph* %this1.i5.i57, i32 0, i32 1, !dbg !2870
  %238 = load i32* %nnodes13.i.i93, align 4, !dbg !2870
  %call14.i.i94 = call i32 (i8*, ...)* @printf(i8* getelementptr inbounds ([53 x i8]* @.str1, i32 0, i32 0), i8* getelementptr inbounds ([25 x i8]* @.str2, i32 0, i32 0), i32 129, i32 %236, i32 %237, i32 %238), !dbg !2870
  store i32 0, i32* %retval.i1.i22, !dbg !2871
  br label %_ZN5Graph12getFirstEdgeEj.exit.i98, !dbg !2871

_ZN5Graph12getFirstEdgeEj.exit.i98:               ; preds = %if.end12.i.i95, %if.end.i13.i92, %if.then5.i.i90
  %239 = load i32* %retval.i1.i22, !dbg !2872
  %240 = bitcast i32* %retval.i1.i22 to i8*, !dbg !2872
  %241 = bitcast %struct.Graph** %this.addr.i2.i23 to i8*, !dbg !2872
  %242 = bitcast i32* %src.addr.i3.i24 to i8*, !dbg !2872
  %243 = bitcast i32* %id.i4.i25 to i8*, !dbg !2872
  %244 = bitcast i32* %srcnout.i.i26 to i8*, !dbg !2872
  %245 = load i32* %nthedge.addr.i34, align 4, !dbg !2856
  %add4.i96 = add i32 %239, %245, !dbg !2856
  store i32 %add4.i96, i32* %edge.i36, align 4, !dbg !2856
  %246 = load i32* %edge.i36, align 4, !dbg !2873
  %tobool.i97 = icmp ne i32 %246, 0, !dbg !2873
  br i1 %tobool.i97, label %land.lhs.true5.i102, label %if.end.i107, !dbg !2873

land.lhs.true5.i102:                              ; preds = %_ZN5Graph12getFirstEdgeEj.exit.i98
  %247 = load i32* %edge.i36, align 4, !dbg !2873
  %nedges.i99 = getelementptr inbounds %struct.Graph* %this1.i37, i32 0, i32 2, !dbg !2873
  %248 = load i32* %nedges.i99, align 4, !dbg !2873
  %add6.i100 = add i32 %248, 1, !dbg !2873
  %cmp7.i101 = icmp ult i32 %247, %add6.i100, !dbg !2873
  br i1 %cmp7.i101, label %if.then8.i106, label %if.end.i107, !dbg !2873

if.then8.i106:                                    ; preds = %land.lhs.true5.i102
  %249 = load i32* %edge.i36, align 4, !dbg !2874
  %idxprom.i103 = zext i32 %249 to i64, !dbg !2874
  %edgessrcwt.i104 = getelementptr inbounds %struct.Graph* %this1.i37, i32 0, i32 8, !dbg !2874
  %250 = load i32** %edgessrcwt.i104, align 8, !dbg !2874
  %arrayidx.i105 = getelementptr inbounds i32* %250, i64 %idxprom.i103, !dbg !2874
  %251 = load i32* %arrayidx.i105, align 4, !dbg !2874
  store i32 %251, i32* %retval.i31, !dbg !2874
  br label %_ZN5Graph9getWeightEjj.exit130, !dbg !2874

if.end.i107:                                      ; preds = %land.lhs.true5.i102, %_ZN5Graph12getFirstEdgeEj.exit.i98
  store i32 1000000000, i32* %retval.i31, !dbg !2875
  br label %_ZN5Graph9getWeightEjj.exit130, !dbg !2875

if.end9.i110:                                     ; preds = %_ZN5Graph12getOutDegreeEj.exit.i56, %for.body
  %252 = load i32* %src.addr.i33, align 4, !dbg !2876
  %nnodes10.i108 = getelementptr inbounds %struct.Graph* %this1.i37, i32 0, i32 1, !dbg !2876
  %253 = load i32* %nnodes10.i108, align 4, !dbg !2876
  %cmp11.i109 = icmp ult i32 %252, %253, !dbg !2876
  %254 = load i32* %id.i35, align 4, !dbg !2877
  %255 = load i32* %src.addr.i33, align 4, !dbg !2877
  br i1 %cmp11.i109, label %if.then12.i114, label %if.else.i128, !dbg !2876

if.then12.i114:                                   ; preds = %if.end9.i110
  %256 = load i32* %nthedge.addr.i34, align 4, !dbg !2877
  %257 = load i32* %src.addr.i33, align 4, !dbg !2877
  %258 = bitcast i32* %retval.i14.i14 to i8*
  %259 = bitcast %struct.Graph** %this.addr.i15.i15 to i8*
  %260 = bitcast i32* %src.addr.i16.i16 to i8*
  %261 = bitcast i32* %id.i17.i17 to i8*
  store %struct.Graph* %this1.i37, %struct.Graph** %this.addr.i15.i15, align 8
  store i32 %257, i32* %src.addr.i16.i16, align 4
  %this1.i18.i111 = load %struct.Graph** %this.addr.i15.i15
  %262 = load i32* %src.addr.i16.i16, align 4, !dbg !2878
  %nnodes.i19.i112 = getelementptr inbounds %struct.Graph* %this1.i18.i111, i32 0, i32 1, !dbg !2878
  %263 = load i32* %nnodes.i19.i112, align 4, !dbg !2878
  %cmp.i20.i113 = icmp ult i32 %262, %263, !dbg !2878
  br i1 %cmp.i20.i113, label %if.then.i24.i118, label %if.end.i29.i123, !dbg !2878

if.then.i24.i118:                                 ; preds = %if.then12.i114
  %264 = load i32* %src.addr.i16.i16, align 4, !dbg !2879
  %idxprom.i21.i115 = zext i32 %264 to i64, !dbg !2879
  %noutgoing.i22.i116 = getelementptr inbounds %struct.Graph* %this1.i18.i111, i32 0, i32 3, !dbg !2879
  %265 = load i32** %noutgoing.i22.i116, align 8, !dbg !2879
  %arrayidx.i23.i117 = getelementptr inbounds i32* %265, i64 %idxprom.i21.i115, !dbg !2879
  %266 = load i32* %arrayidx.i23.i117, align 4, !dbg !2879
  store i32 %266, i32* %retval.i14.i14, !dbg !2879
  br label %_ZN5Graph12getOutDegreeEj.exit30.i125, !dbg !2879

if.end.i29.i123:                                  ; preds = %if.then12.i114
  %267 = load i32* getelementptr inbounds (%struct.dim3* @blockIdx, i32 0, i32 0), align 4, !dbg !2880
  %268 = load i32* getelementptr inbounds (%struct.dim3* @blockDim, i32 0, i32 0), align 4, !dbg !2880
  %mul.i25.i119 = mul i32 %267, %268, !dbg !2880
  %269 = load i32* getelementptr inbounds (%struct.dim3* @threadIdx, i32 0, i32 0), align 4, !dbg !2880
  %add.i26.i120 = add i32 %mul.i25.i119, %269, !dbg !2880
  store i32 %add.i26.i120, i32* %id.i17.i17, align 4, !dbg !2880
  %270 = load i32* %id.i17.i17, align 4, !dbg !2881
  %271 = load i32* %src.addr.i16.i16, align 4, !dbg !2881
  %nnodes2.i27.i121 = getelementptr inbounds %struct.Graph* %this1.i18.i111, i32 0, i32 1, !dbg !2881
  %272 = load i32* %nnodes2.i27.i121, align 4, !dbg !2881
  %call.i28.i122 = call i32 (i8*, ...)* @printf(i8* getelementptr inbounds ([53 x i8]* @.str1, i32 0, i32 0), i8* getelementptr inbounds ([25 x i8]* @.str2, i32 0, i32 0), i32 72, i32 %270, i32 %271, i32 %272), !dbg !2881
  store i32 0, i32* %retval.i14.i14, !dbg !2882
  br label %_ZN5Graph12getOutDegreeEj.exit30.i125, !dbg !2882

_ZN5Graph12getOutDegreeEj.exit30.i125:            ; preds = %if.end.i29.i123, %if.then.i24.i118
  %273 = load i32* %retval.i14.i14, !dbg !2883
  %274 = bitcast i32* %retval.i14.i14 to i8*, !dbg !2883
  %275 = bitcast %struct.Graph** %this.addr.i15.i15 to i8*, !dbg !2883
  %276 = bitcast i32* %src.addr.i16.i16 to i8*, !dbg !2883
  %277 = bitcast i32* %id.i17.i17 to i8*, !dbg !2883
  %call14.i124 = call i32 (i8*, ...)* @printf(i8* getelementptr inbounds ([62 x i8]* @.str3, i32 0, i32 0), i8* getelementptr inbounds ([25 x i8]* @.str2, i32 0, i32 0), i32 111, i32 %254, i32 %255, i32 %256, i32 %273), !dbg !2877
  br label %if.end17.i129, !dbg !2884

if.else.i128:                                     ; preds = %if.end9.i110
  %nnodes15.i126 = getelementptr inbounds %struct.Graph* %this1.i37, i32 0, i32 1, !dbg !2885
  %278 = load i32* %nnodes15.i126, align 4, !dbg !2885
  %call16.i127 = call i32 (i8*, ...)* @printf(i8* getelementptr inbounds ([53 x i8]* @.str1, i32 0, i32 0), i8* getelementptr inbounds ([25 x i8]* @.str2, i32 0, i32 0), i32 113, i32 %254, i32 %255, i32 %278), !dbg !2885
  br label %if.end17.i129

if.end17.i129:                                    ; preds = %if.else.i128, %_ZN5Graph12getOutDegreeEj.exit30.i125
  store i32 1000000000, i32* %retval.i31, !dbg !2886
  br label %_ZN5Graph9getWeightEjj.exit130, !dbg !2886

_ZN5Graph9getWeightEjj.exit130:                   ; preds = %if.end17.i129, %if.end.i107, %if.then8.i106
  %279 = load i32* %retval.i31, !dbg !2887
  %280 = bitcast i32* %retval.i31 to i8*, !dbg !2887
  %281 = bitcast %struct.Graph** %this.addr.i32 to i8*, !dbg !2887
  %282 = bitcast i32* %src.addr.i33 to i8*, !dbg !2887
  %283 = bitcast i32* %nthedge.addr.i34 to i8*, !dbg !2887
  %284 = bitcast i32* %id.i35 to i8*, !dbg !2887
  %285 = bitcast i32* %edge.i36 to i8*, !dbg !2887
  store i32 %279, i32* %wt, align 4, !dbg !2846
  %286 = load i32* %wt, align 4, !dbg !2888
  %287 = load i32* %minwt, align 4, !dbg !2888
  %cmp7 = icmp ult i32 %286, %287, !dbg !2888
  br i1 %cmp7, label %if.then8, label %for.inc, !dbg !2888

if.then8:                                         ; preds = %_ZN5Graph9getWeightEjj.exit130
  %288 = load i32* %ii, align 4, !dbg !2889
  store i32 %288, i32* %minedge, align 4, !dbg !2889
  %289 = load i32* %wt, align 4, !dbg !2891
  store i32 %289, i32* %minwt, align 4, !dbg !2891
  br label %for.inc, !dbg !2892

for.inc:                                          ; preds = %_ZN5Graph9getWeightEjj.exit130, %if.then8
  %290 = load i32* %ii, align 4, !dbg !2844
  %inc = add i32 %290, 1, !dbg !2844
  store i32 %inc, i32* %ii, align 4, !dbg !2844
  br label %for.cond, !dbg !2844

for.end:                                          ; preds = %for.cond
  %291 = load i32* %minedge, align 4, !dbg !2893
  store i32 %291, i32* %retval, !dbg !2893
  br label %return, !dbg !2893

if.end9:                                          ; preds = %_ZN5Graph12getOutDegreeEj.exit
  %292 = load i32* %id, align 4, !dbg !2894
  %293 = load i32* %srcnout, align 4, !dbg !2894
  %call10 = call i32 (i8*, ...)* @printf(i8* getelementptr inbounds ([53 x i8]* @.str4, i32 0, i32 0), i8* getelementptr inbounds ([25 x i8]* @.str2, i32 0, i32 0), i32 148, i32 %292, i32 0, i32 %293), !dbg !2894
  store i32 0, i32* %retval, !dbg !2895
  br label %return, !dbg !2895

if.end11:                                         ; preds = %entry
  %294 = load i32* %id, align 4, !dbg !2896
  %295 = load i32* %src.addr, align 4, !dbg !2896
  %nnodes12 = getelementptr inbounds %struct.Graph* %this1, i32 0, i32 1, !dbg !2896
  %296 = load i32* %nnodes12, align 4, !dbg !2896
  %call13 = call i32 (i8*, ...)* @printf(i8* getelementptr inbounds ([53 x i8]* @.str1, i32 0, i32 0), i8* getelementptr inbounds ([25 x i8]* @.str2, i32 0, i32 0), i32 151, i32 %294, i32 %295, i32 %296), !dbg !2896
  store i32 0, i32* %retval, !dbg !2897
  br label %return, !dbg !2897

return:                                           ; preds = %if.end11, %if.end9, %for.end
  %297 = load i32* %retval, !dbg !2898
  ret i32 %297, !dbg !2898
}

define void @_ZN5Graph8print1x1Ev(%struct.Graph* %this) uwtable section "__device__" align 2 {
entry:
  %retval.i14.i14 = alloca i32, align 4
  %this.addr.i15.i15 = alloca %struct.Graph*, align 8
  %src.addr.i16.i16 = alloca i32, align 4
  %id.i17.i17 = alloca i32, align 4
  %retval.i.i.i18 = alloca i32, align 4
  %this.addr.i.i.i19 = alloca %struct.Graph*, align 8
  %src.addr.i.i.i20 = alloca i32, align 4
  %id.i.i.i21 = alloca i32, align 4
  %retval.i1.i22 = alloca i32, align 4
  %this.addr.i2.i23 = alloca %struct.Graph*, align 8
  %src.addr.i3.i24 = alloca i32, align 4
  %id.i4.i25 = alloca i32, align 4
  %srcnout.i.i26 = alloca i32, align 4
  %retval.i.i27 = alloca i32, align 4
  %this.addr.i.i28 = alloca %struct.Graph*, align 8
  %src.addr.i.i29 = alloca i32, align 4
  %id.i.i30 = alloca i32, align 4
  %retval.i31 = alloca i32, align 4
  %this.addr.i32 = alloca %struct.Graph*, align 8
  %src.addr.i33 = alloca i32, align 4
  %nthedge.addr.i34 = alloca i32, align 4
  %id.i35 = alloca i32, align 4
  %edge.i36 = alloca i32, align 4
  %retval.i14.i = alloca i32, align 4
  %this.addr.i15.i = alloca %struct.Graph*, align 8
  %src.addr.i16.i = alloca i32, align 4
  %id.i17.i = alloca i32, align 4
  %retval.i.i.i = alloca i32, align 4
  %this.addr.i.i.i = alloca %struct.Graph*, align 8
  %src.addr.i.i.i = alloca i32, align 4
  %id.i.i.i = alloca i32, align 4
  %retval.i1.i = alloca i32, align 4
  %this.addr.i2.i = alloca %struct.Graph*, align 8
  %src.addr.i3.i = alloca i32, align 4
  %id.i4.i = alloca i32, align 4
  %srcnout.i.i = alloca i32, align 4
  %retval.i.i = alloca i32, align 4
  %this.addr.i.i = alloca %struct.Graph*, align 8
  %src.addr.i.i = alloca i32, align 4
  %id.i.i = alloca i32, align 4
  %retval.i1 = alloca i32, align 4
  %this.addr.i2 = alloca %struct.Graph*, align 8
  %src.addr.i3 = alloca i32, align 4
  %nthedge.addr.i = alloca i32, align 4
  %id.i4 = alloca i32, align 4
  %edge.i = alloca i32, align 4
  %retval.i = alloca i32, align 4
  %this.addr.i = alloca %struct.Graph*, align 8
  %src.addr.i = alloca i32, align 4
  %id.i = alloca i32, align 4
  %this.addr = alloca %struct.Graph*, align 8
  %edgescounted = alloca i32, align 4
  %ii = alloca i32, align 4
  %nout = alloca i32, align 4
  %ee = alloca i32, align 4
  %dst = alloca i32, align 4
  %wt = alloca i32, align 4
  store %struct.Graph* %this, %struct.Graph** %this.addr, align 8
  %this1 = load %struct.Graph** %this.addr
  store i32 0, i32* %edgescounted, align 4, !dbg !2899
  %nnodes = getelementptr inbounds %struct.Graph* %this1, i32 0, i32 1, !dbg !2901
  %0 = load i32* %nnodes, align 4, !dbg !2901
  %nedges = getelementptr inbounds %struct.Graph* %this1, i32 0, i32 2, !dbg !2901
  %1 = load i32* %nedges, align 4, !dbg !2901
  %call = call i32 (i8*, ...)* @printf(i8* getelementptr inbounds ([7 x i8]* @.str5, i32 0, i32 0), i32 %0, i32 %1), !dbg !2901
  store i32 0, i32* %ii, align 4, !dbg !2902
  br label %for.cond, !dbg !2902

for.cond:                                         ; preds = %for.inc11, %entry
  %2 = load i32* %ii, align 4, !dbg !2902
  %nnodes2 = getelementptr inbounds %struct.Graph* %this1, i32 0, i32 1, !dbg !2902
  %3 = load i32* %nnodes2, align 4, !dbg !2902
  %cmp = icmp ult i32 %2, %3, !dbg !2902
  br i1 %cmp, label %for.body, label %for.end13, !dbg !2902

for.body:                                         ; preds = %for.cond
  %4 = load i32* %ii, align 4, !dbg !2904
  %5 = bitcast i32* %retval.i to i8*
  %6 = bitcast %struct.Graph** %this.addr.i to i8*
  %7 = bitcast i32* %src.addr.i to i8*
  %8 = bitcast i32* %id.i to i8*
  store %struct.Graph* %this1, %struct.Graph** %this.addr.i, align 8
  store i32 %4, i32* %src.addr.i, align 4
  %this1.i = load %struct.Graph** %this.addr.i
  %9 = load i32* %src.addr.i, align 4, !dbg !2906
  %nnodes.i = getelementptr inbounds %struct.Graph* %this1.i, i32 0, i32 1, !dbg !2906
  %10 = load i32* %nnodes.i, align 4, !dbg !2906
  %cmp.i = icmp ult i32 %9, %10, !dbg !2906
  br i1 %cmp.i, label %if.then.i, label %if.end.i, !dbg !2906

if.then.i:                                        ; preds = %for.body
  %11 = load i32* %src.addr.i, align 4, !dbg !2907
  %idxprom.i = zext i32 %11 to i64, !dbg !2907
  %noutgoing.i = getelementptr inbounds %struct.Graph* %this1.i, i32 0, i32 3, !dbg !2907
  %12 = load i32** %noutgoing.i, align 8, !dbg !2907
  %arrayidx.i = getelementptr inbounds i32* %12, i64 %idxprom.i, !dbg !2907
  %13 = load i32* %arrayidx.i, align 4, !dbg !2907
  store i32 %13, i32* %retval.i, !dbg !2907
  br label %_ZN5Graph12getOutDegreeEj.exit, !dbg !2907

if.end.i:                                         ; preds = %for.body
  %14 = load i32* getelementptr inbounds (%struct.dim3* @blockIdx, i32 0, i32 0), align 4, !dbg !2908
  %15 = load i32* getelementptr inbounds (%struct.dim3* @blockDim, i32 0, i32 0), align 4, !dbg !2908
  %mul.i = mul i32 %14, %15, !dbg !2908
  %16 = load i32* getelementptr inbounds (%struct.dim3* @threadIdx, i32 0, i32 0), align 4, !dbg !2908
  %add.i = add i32 %mul.i, %16, !dbg !2908
  store i32 %add.i, i32* %id.i, align 4, !dbg !2908
  %17 = load i32* %id.i, align 4, !dbg !2909
  %18 = load i32* %src.addr.i, align 4, !dbg !2909
  %nnodes2.i = getelementptr inbounds %struct.Graph* %this1.i, i32 0, i32 1, !dbg !2909
  %19 = load i32* %nnodes2.i, align 4, !dbg !2909
  %call.i = call i32 (i8*, ...)* @printf(i8* getelementptr inbounds ([53 x i8]* @.str1, i32 0, i32 0), i8* getelementptr inbounds ([25 x i8]* @.str2, i32 0, i32 0), i32 72, i32 %17, i32 %18, i32 %19), !dbg !2909
  store i32 0, i32* %retval.i, !dbg !2910
  br label %_ZN5Graph12getOutDegreeEj.exit, !dbg !2910

_ZN5Graph12getOutDegreeEj.exit:                   ; preds = %if.end.i, %if.then.i
  %20 = load i32* %retval.i, !dbg !2911
  %21 = bitcast i32* %retval.i to i8*, !dbg !2911
  %22 = bitcast %struct.Graph** %this.addr.i to i8*, !dbg !2911
  %23 = bitcast i32* %src.addr.i to i8*, !dbg !2911
  %24 = bitcast i32* %id.i to i8*, !dbg !2911
  store i32 %20, i32* %nout, align 4, !dbg !2904
  store i32 0, i32* %ee, align 4, !dbg !2912
  br label %for.cond4, !dbg !2912

for.cond4:                                        ; preds = %_ZN5Graph9getWeightEjj.exit, %_ZN5Graph12getOutDegreeEj.exit
  %25 = load i32* %ee, align 4, !dbg !2912
  %26 = load i32* %nout, align 4, !dbg !2912
  %cmp5 = icmp ult i32 %25, %26, !dbg !2912
  %27 = load i32* %ii, align 4, !dbg !2914
  br i1 %cmp5, label %for.body6, label %for.inc11, !dbg !2912

for.body6:                                        ; preds = %for.cond4
  %28 = load i32* %ee, align 4, !dbg !2914
  %29 = bitcast i32* %retval.i1 to i8*
  %30 = bitcast %struct.Graph** %this.addr.i2 to i8*
  %31 = bitcast i32* %src.addr.i3 to i8*
  %32 = bitcast i32* %nthedge.addr.i to i8*
  %33 = bitcast i32* %id.i4 to i8*
  %34 = bitcast i32* %edge.i to i8*
  store %struct.Graph* %this1, %struct.Graph** %this.addr.i2, align 8
  store i32 %27, i32* %src.addr.i3, align 4
  store i32 %28, i32* %nthedge.addr.i, align 4
  %this1.i5 = load %struct.Graph** %this.addr.i2
  %35 = load i32* getelementptr inbounds (%struct.dim3* @blockIdx, i32 0, i32 0), align 4, !dbg !2916
  %36 = load i32* getelementptr inbounds (%struct.dim3* @blockDim, i32 0, i32 0), align 4, !dbg !2916
  %mul.i6 = mul i32 %35, %36, !dbg !2916
  %37 = load i32* getelementptr inbounds (%struct.dim3* @threadIdx, i32 0, i32 0), align 4, !dbg !2916
  %add.i7 = add i32 %mul.i6, %37, !dbg !2916
  store i32 %add.i7, i32* %id.i4, align 4, !dbg !2916
  %38 = load i32* %src.addr.i3, align 4, !dbg !2917
  %nnodes.i8 = getelementptr inbounds %struct.Graph* %this1.i5, i32 0, i32 1, !dbg !2917
  %39 = load i32* %nnodes.i8, align 4, !dbg !2917
  %cmp.i9 = icmp ult i32 %38, %39, !dbg !2917
  br i1 %cmp.i9, label %land.lhs.true.i, label %if.end10.i, !dbg !2917

land.lhs.true.i:                                  ; preds = %for.body6
  %40 = load i32* %nthedge.addr.i, align 4, !dbg !2917
  %41 = load i32* %src.addr.i3, align 4, !dbg !2917
  %42 = bitcast i32* %retval.i.i to i8*
  %43 = bitcast %struct.Graph** %this.addr.i.i to i8*
  %44 = bitcast i32* %src.addr.i.i to i8*
  %45 = bitcast i32* %id.i.i to i8*
  store %struct.Graph* %this1.i5, %struct.Graph** %this.addr.i.i, align 8
  store i32 %41, i32* %src.addr.i.i, align 4
  %this1.i.i = load %struct.Graph** %this.addr.i.i
  %46 = load i32* %src.addr.i.i, align 4, !dbg !2918
  %nnodes.i.i = getelementptr inbounds %struct.Graph* %this1.i.i, i32 0, i32 1, !dbg !2918
  %47 = load i32* %nnodes.i.i, align 4, !dbg !2918
  %cmp.i.i = icmp ult i32 %46, %47, !dbg !2918
  br i1 %cmp.i.i, label %if.then.i.i, label %if.end.i.i, !dbg !2918

if.then.i.i:                                      ; preds = %land.lhs.true.i
  %48 = load i32* %src.addr.i.i, align 4, !dbg !2919
  %idxprom.i.i = zext i32 %48 to i64, !dbg !2919
  %noutgoing.i.i = getelementptr inbounds %struct.Graph* %this1.i.i, i32 0, i32 3, !dbg !2919
  %49 = load i32** %noutgoing.i.i, align 8, !dbg !2919
  %arrayidx.i.i = getelementptr inbounds i32* %49, i64 %idxprom.i.i, !dbg !2919
  %50 = load i32* %arrayidx.i.i, align 4, !dbg !2919
  store i32 %50, i32* %retval.i.i, !dbg !2919
  br label %_ZN5Graph12getOutDegreeEj.exit.i, !dbg !2919

if.end.i.i:                                       ; preds = %land.lhs.true.i
  %51 = load i32* getelementptr inbounds (%struct.dim3* @blockIdx, i32 0, i32 0), align 4, !dbg !2920
  %52 = load i32* getelementptr inbounds (%struct.dim3* @blockDim, i32 0, i32 0), align 4, !dbg !2920
  %mul.i.i = mul i32 %51, %52, !dbg !2920
  %53 = load i32* getelementptr inbounds (%struct.dim3* @threadIdx, i32 0, i32 0), align 4, !dbg !2920
  %add.i.i = add i32 %mul.i.i, %53, !dbg !2920
  store i32 %add.i.i, i32* %id.i.i, align 4, !dbg !2920
  %54 = load i32* %id.i.i, align 4, !dbg !2921
  %55 = load i32* %src.addr.i.i, align 4, !dbg !2921
  %nnodes2.i.i = getelementptr inbounds %struct.Graph* %this1.i.i, i32 0, i32 1, !dbg !2921
  %56 = load i32* %nnodes2.i.i, align 4, !dbg !2921
  %call.i.i = call i32 (i8*, ...)* @printf(i8* getelementptr inbounds ([53 x i8]* @.str1, i32 0, i32 0), i8* getelementptr inbounds ([25 x i8]* @.str2, i32 0, i32 0), i32 72, i32 %54, i32 %55, i32 %56), !dbg !2921
  store i32 0, i32* %retval.i.i, !dbg !2922
  br label %_ZN5Graph12getOutDegreeEj.exit.i, !dbg !2922

_ZN5Graph12getOutDegreeEj.exit.i:                 ; preds = %if.end.i.i, %if.then.i.i
  %57 = load i32* %retval.i.i, !dbg !2923
  %58 = bitcast i32* %retval.i.i to i8*, !dbg !2923
  %59 = bitcast %struct.Graph** %this.addr.i.i to i8*, !dbg !2923
  %60 = bitcast i32* %src.addr.i.i to i8*, !dbg !2923
  %61 = bitcast i32* %id.i.i to i8*, !dbg !2923
  %cmp2.i = icmp ult i32 %40, %57, !dbg !2917
  br i1 %cmp2.i, label %if.then.i10, label %if.end10.i, !dbg !2917

if.then.i10:                                      ; preds = %_ZN5Graph12getOutDegreeEj.exit.i
  %62 = load i32* %src.addr.i3, align 4, !dbg !2924
  %63 = bitcast i32* %retval.i1.i to i8*
  %64 = bitcast %struct.Graph** %this.addr.i2.i to i8*
  %65 = bitcast i32* %src.addr.i3.i to i8*
  %66 = bitcast i32* %id.i4.i to i8*
  %67 = bitcast i32* %srcnout.i.i to i8*
  store %struct.Graph* %this1.i5, %struct.Graph** %this.addr.i2.i, align 8
  store i32 %62, i32* %src.addr.i3.i, align 4
  %this1.i5.i = load %struct.Graph** %this.addr.i2.i
  %68 = load i32* getelementptr inbounds (%struct.dim3* @blockIdx, i32 0, i32 0), align 4, !dbg !2925
  %69 = load i32* getelementptr inbounds (%struct.dim3* @blockDim, i32 0, i32 0), align 4, !dbg !2925
  %mul.i6.i = mul i32 %68, %69, !dbg !2925
  %70 = load i32* getelementptr inbounds (%struct.dim3* @threadIdx, i32 0, i32 0), align 4, !dbg !2925
  %add.i7.i = add i32 %mul.i6.i, %70, !dbg !2925
  store i32 %add.i7.i, i32* %id.i4.i, align 4, !dbg !2925
  %71 = load i32* %src.addr.i3.i, align 4, !dbg !2926
  %nnodes.i8.i = getelementptr inbounds %struct.Graph* %this1.i5.i, i32 0, i32 1, !dbg !2926
  %72 = load i32* %nnodes.i8.i, align 4, !dbg !2926
  %cmp.i9.i = icmp ult i32 %71, %72, !dbg !2926
  br i1 %cmp.i9.i, label %if.then.i10.i, label %if.end12.i.i, !dbg !2926

if.then.i10.i:                                    ; preds = %if.then.i10
  %73 = load i32* %src.addr.i3.i, align 4, !dbg !2927
  %74 = bitcast i32* %retval.i.i.i to i8*
  %75 = bitcast %struct.Graph** %this.addr.i.i.i to i8*
  %76 = bitcast i32* %src.addr.i.i.i to i8*
  %77 = bitcast i32* %id.i.i.i to i8*
  store %struct.Graph* %this1.i5.i, %struct.Graph** %this.addr.i.i.i, align 8
  store i32 %73, i32* %src.addr.i.i.i, align 4
  %this1.i.i.i = load %struct.Graph** %this.addr.i.i.i
  %78 = load i32* %src.addr.i.i.i, align 4, !dbg !2928
  %nnodes.i.i.i = getelementptr inbounds %struct.Graph* %this1.i.i.i, i32 0, i32 1, !dbg !2928
  %79 = load i32* %nnodes.i.i.i, align 4, !dbg !2928
  %cmp.i.i.i = icmp ult i32 %78, %79, !dbg !2928
  br i1 %cmp.i.i.i, label %if.then.i.i.i, label %if.end.i.i.i, !dbg !2928

if.then.i.i.i:                                    ; preds = %if.then.i10.i
  %80 = load i32* %src.addr.i.i.i, align 4, !dbg !2929
  %idxprom.i.i.i = zext i32 %80 to i64, !dbg !2929
  %noutgoing.i.i.i = getelementptr inbounds %struct.Graph* %this1.i.i.i, i32 0, i32 3, !dbg !2929
  %81 = load i32** %noutgoing.i.i.i, align 8, !dbg !2929
  %arrayidx.i.i.i = getelementptr inbounds i32* %81, i64 %idxprom.i.i.i, !dbg !2929
  %82 = load i32* %arrayidx.i.i.i, align 4, !dbg !2929
  store i32 %82, i32* %retval.i.i.i, !dbg !2929
  br label %_ZN5Graph12getOutDegreeEj.exit.i.i, !dbg !2929

if.end.i.i.i:                                     ; preds = %if.then.i10.i
  %83 = load i32* getelementptr inbounds (%struct.dim3* @blockIdx, i32 0, i32 0), align 4, !dbg !2930
  %84 = load i32* getelementptr inbounds (%struct.dim3* @blockDim, i32 0, i32 0), align 4, !dbg !2930
  %mul.i.i.i = mul i32 %83, %84, !dbg !2930
  %85 = load i32* getelementptr inbounds (%struct.dim3* @threadIdx, i32 0, i32 0), align 4, !dbg !2930
  %add.i.i.i = add i32 %mul.i.i.i, %85, !dbg !2930
  store i32 %add.i.i.i, i32* %id.i.i.i, align 4, !dbg !2930
  %86 = load i32* %id.i.i.i, align 4, !dbg !2931
  %87 = load i32* %src.addr.i.i.i, align 4, !dbg !2931
  %nnodes2.i.i.i = getelementptr inbounds %struct.Graph* %this1.i.i.i, i32 0, i32 1, !dbg !2931
  %88 = load i32* %nnodes2.i.i.i, align 4, !dbg !2931
  %call.i.i.i = call i32 (i8*, ...)* @printf(i8* getelementptr inbounds ([53 x i8]* @.str1, i32 0, i32 0), i8* getelementptr inbounds ([25 x i8]* @.str2, i32 0, i32 0), i32 72, i32 %86, i32 %87, i32 %88), !dbg !2931
  store i32 0, i32* %retval.i.i.i, !dbg !2932
  br label %_ZN5Graph12getOutDegreeEj.exit.i.i, !dbg !2932

_ZN5Graph12getOutDegreeEj.exit.i.i:               ; preds = %if.end.i.i.i, %if.then.i.i.i
  %89 = load i32* %retval.i.i.i, !dbg !2933
  %90 = bitcast i32* %retval.i.i.i to i8*, !dbg !2933
  %91 = bitcast %struct.Graph** %this.addr.i.i.i to i8*, !dbg !2933
  %92 = bitcast i32* %src.addr.i.i.i to i8*, !dbg !2933
  %93 = bitcast i32* %id.i.i.i to i8*, !dbg !2933
  store i32 %89, i32* %srcnout.i.i, align 4, !dbg !2927
  %94 = load i32* %srcnout.i.i, align 4, !dbg !2934
  %cmp2.i.i = icmp ugt i32 %94, 0, !dbg !2934
  br i1 %cmp2.i.i, label %land.lhs.true.i.i, label %if.end.i13.i, !dbg !2934

land.lhs.true.i.i:                                ; preds = %_ZN5Graph12getOutDegreeEj.exit.i.i
  %95 = load i32* %src.addr.i3.i, align 4, !dbg !2934
  %idxprom.i11.i = zext i32 %95 to i64, !dbg !2934
  %srcsrc.i.i = getelementptr inbounds %struct.Graph* %this1.i5.i, i32 0, i32 5, !dbg !2934
  %96 = load i32** %srcsrc.i.i, align 8, !dbg !2934
  %arrayidx.i12.i = getelementptr inbounds i32* %96, i64 %idxprom.i11.i, !dbg !2934
  %97 = load i32* %arrayidx.i12.i, align 4, !dbg !2934
  %nnodes3.i.i = getelementptr inbounds %struct.Graph* %this1.i5.i, i32 0, i32 1, !dbg !2934
  %98 = load i32* %nnodes3.i.i, align 4, !dbg !2934
  %cmp4.i.i = icmp ult i32 %97, %98, !dbg !2934
  br i1 %cmp4.i.i, label %if.then5.i.i, label %if.end.i13.i, !dbg !2934

if.then5.i.i:                                     ; preds = %land.lhs.true.i.i
  %99 = load i32* %src.addr.i3.i, align 4, !dbg !2935
  %idxprom6.i.i = zext i32 %99 to i64, !dbg !2935
  %srcsrc7.i.i = getelementptr inbounds %struct.Graph* %this1.i5.i, i32 0, i32 5, !dbg !2935
  %100 = load i32** %srcsrc7.i.i, align 8, !dbg !2935
  %arrayidx8.i.i = getelementptr inbounds i32* %100, i64 %idxprom6.i.i, !dbg !2935
  %101 = load i32* %arrayidx8.i.i, align 4, !dbg !2935
  %idxprom9.i.i = zext i32 %101 to i64, !dbg !2935
  %psrc.i.i = getelementptr inbounds %struct.Graph* %this1.i5.i, i32 0, i32 6, !dbg !2935
  %102 = load i32** %psrc.i.i, align 8, !dbg !2935
  %arrayidx10.i.i = getelementptr inbounds i32* %102, i64 %idxprom9.i.i, !dbg !2935
  %103 = load i32* %arrayidx10.i.i, align 4, !dbg !2935
  store i32 %103, i32* %retval.i1.i, !dbg !2935
  br label %_ZN5Graph12getFirstEdgeEj.exit.i, !dbg !2935

if.end.i13.i:                                     ; preds = %land.lhs.true.i.i, %_ZN5Graph12getOutDegreeEj.exit.i.i
  %104 = load i32* %id.i4.i, align 4, !dbg !2936
  %105 = load i32* %srcnout.i.i, align 4, !dbg !2936
  %call11.i.i = call i32 (i8*, ...)* @printf(i8* getelementptr inbounds ([53 x i8]* @.str4, i32 0, i32 0), i8* getelementptr inbounds ([25 x i8]* @.str2, i32 0, i32 0), i32 126, i32 %104, i32 0, i32 %105), !dbg !2936
  store i32 0, i32* %retval.i1.i, !dbg !2937
  br label %_ZN5Graph12getFirstEdgeEj.exit.i, !dbg !2937

if.end12.i.i:                                     ; preds = %if.then.i10
  %106 = load i32* %id.i4.i, align 4, !dbg !2938
  %107 = load i32* %src.addr.i3.i, align 4, !dbg !2938
  %nnodes13.i.i = getelementptr inbounds %struct.Graph* %this1.i5.i, i32 0, i32 1, !dbg !2938
  %108 = load i32* %nnodes13.i.i, align 4, !dbg !2938
  %call14.i.i = call i32 (i8*, ...)* @printf(i8* getelementptr inbounds ([53 x i8]* @.str1, i32 0, i32 0), i8* getelementptr inbounds ([25 x i8]* @.str2, i32 0, i32 0), i32 129, i32 %106, i32 %107, i32 %108), !dbg !2938
  store i32 0, i32* %retval.i1.i, !dbg !2939
  br label %_ZN5Graph12getFirstEdgeEj.exit.i, !dbg !2939

_ZN5Graph12getFirstEdgeEj.exit.i:                 ; preds = %if.end12.i.i, %if.end.i13.i, %if.then5.i.i
  %109 = load i32* %retval.i1.i, !dbg !2940
  %110 = bitcast i32* %retval.i1.i to i8*, !dbg !2940
  %111 = bitcast %struct.Graph** %this.addr.i2.i to i8*, !dbg !2940
  %112 = bitcast i32* %src.addr.i3.i to i8*, !dbg !2940
  %113 = bitcast i32* %id.i4.i to i8*, !dbg !2940
  %114 = bitcast i32* %srcnout.i.i to i8*, !dbg !2940
  %115 = load i32* %nthedge.addr.i, align 4, !dbg !2924
  %add4.i = add i32 %109, %115, !dbg !2924
  store i32 %add4.i, i32* %edge.i, align 4, !dbg !2924
  %116 = load i32* %edge.i, align 4, !dbg !2941
  %tobool.i = icmp ne i32 %116, 0, !dbg !2941
  br i1 %tobool.i, label %land.lhs.true5.i, label %if.end.i13, !dbg !2941

land.lhs.true5.i:                                 ; preds = %_ZN5Graph12getFirstEdgeEj.exit.i
  %117 = load i32* %edge.i, align 4, !dbg !2941
  %nedges.i = getelementptr inbounds %struct.Graph* %this1.i5, i32 0, i32 2, !dbg !2941
  %118 = load i32* %nedges.i, align 4, !dbg !2941
  %add6.i = add i32 %118, 1, !dbg !2941
  %cmp7.i = icmp ult i32 %117, %add6.i, !dbg !2941
  br i1 %cmp7.i, label %if.then8.i, label %if.end.i13, !dbg !2941

if.then8.i:                                       ; preds = %land.lhs.true5.i
  %119 = load i32* %edge.i, align 4, !dbg !2942
  %idxprom.i11 = zext i32 %119 to i64, !dbg !2942
  %edgessrcdst.i = getelementptr inbounds %struct.Graph* %this1.i5, i32 0, i32 7, !dbg !2942
  %120 = load i32** %edgessrcdst.i, align 8, !dbg !2942
  %arrayidx.i12 = getelementptr inbounds i32* %120, i64 %idxprom.i11, !dbg !2942
  %121 = load i32* %arrayidx.i12, align 4, !dbg !2942
  store i32 %121, i32* %retval.i1, !dbg !2942
  br label %_ZN5Graph14getDestinationEjj.exit, !dbg !2942

if.end.i13:                                       ; preds = %land.lhs.true5.i, %_ZN5Graph12getFirstEdgeEj.exit.i
  %nnodes9.i = getelementptr inbounds %struct.Graph* %this1.i5, i32 0, i32 1, !dbg !2943
  %122 = load i32* %nnodes9.i, align 4, !dbg !2943
  store i32 %122, i32* %retval.i1, !dbg !2943
  br label %_ZN5Graph14getDestinationEjj.exit, !dbg !2943

if.end10.i:                                       ; preds = %_ZN5Graph12getOutDegreeEj.exit.i, %for.body6
  %123 = load i32* %src.addr.i3, align 4, !dbg !2944
  %nnodes11.i = getelementptr inbounds %struct.Graph* %this1.i5, i32 0, i32 1, !dbg !2944
  %124 = load i32* %nnodes11.i, align 4, !dbg !2944
  %cmp12.i = icmp ult i32 %123, %124, !dbg !2944
  %125 = load i32* %id.i4, align 4, !dbg !2945
  %126 = load i32* %src.addr.i3, align 4, !dbg !2945
  br i1 %cmp12.i, label %if.then13.i, label %if.else.i, !dbg !2944

if.then13.i:                                      ; preds = %if.end10.i
  %127 = load i32* %nthedge.addr.i, align 4, !dbg !2945
  %128 = load i32* %src.addr.i3, align 4, !dbg !2945
  %129 = bitcast i32* %retval.i14.i to i8*
  %130 = bitcast %struct.Graph** %this.addr.i15.i to i8*
  %131 = bitcast i32* %src.addr.i16.i to i8*
  %132 = bitcast i32* %id.i17.i to i8*
  store %struct.Graph* %this1.i5, %struct.Graph** %this.addr.i15.i, align 8
  store i32 %128, i32* %src.addr.i16.i, align 4
  %this1.i18.i = load %struct.Graph** %this.addr.i15.i
  %133 = load i32* %src.addr.i16.i, align 4, !dbg !2946
  %nnodes.i19.i = getelementptr inbounds %struct.Graph* %this1.i18.i, i32 0, i32 1, !dbg !2946
  %134 = load i32* %nnodes.i19.i, align 4, !dbg !2946
  %cmp.i20.i = icmp ult i32 %133, %134, !dbg !2946
  br i1 %cmp.i20.i, label %if.then.i24.i, label %if.end.i29.i, !dbg !2946

if.then.i24.i:                                    ; preds = %if.then13.i
  %135 = load i32* %src.addr.i16.i, align 4, !dbg !2947
  %idxprom.i21.i = zext i32 %135 to i64, !dbg !2947
  %noutgoing.i22.i = getelementptr inbounds %struct.Graph* %this1.i18.i, i32 0, i32 3, !dbg !2947
  %136 = load i32** %noutgoing.i22.i, align 8, !dbg !2947
  %arrayidx.i23.i = getelementptr inbounds i32* %136, i64 %idxprom.i21.i, !dbg !2947
  %137 = load i32* %arrayidx.i23.i, align 4, !dbg !2947
  store i32 %137, i32* %retval.i14.i, !dbg !2947
  br label %_ZN5Graph12getOutDegreeEj.exit30.i, !dbg !2947

if.end.i29.i:                                     ; preds = %if.then13.i
  %138 = load i32* getelementptr inbounds (%struct.dim3* @blockIdx, i32 0, i32 0), align 4, !dbg !2948
  %139 = load i32* getelementptr inbounds (%struct.dim3* @blockDim, i32 0, i32 0), align 4, !dbg !2948
  %mul.i25.i = mul i32 %138, %139, !dbg !2948
  %140 = load i32* getelementptr inbounds (%struct.dim3* @threadIdx, i32 0, i32 0), align 4, !dbg !2948
  %add.i26.i = add i32 %mul.i25.i, %140, !dbg !2948
  store i32 %add.i26.i, i32* %id.i17.i, align 4, !dbg !2948
  %141 = load i32* %id.i17.i, align 4, !dbg !2949
  %142 = load i32* %src.addr.i16.i, align 4, !dbg !2949
  %nnodes2.i27.i = getelementptr inbounds %struct.Graph* %this1.i18.i, i32 0, i32 1, !dbg !2949
  %143 = load i32* %nnodes2.i27.i, align 4, !dbg !2949
  %call.i28.i = call i32 (i8*, ...)* @printf(i8* getelementptr inbounds ([53 x i8]* @.str1, i32 0, i32 0), i8* getelementptr inbounds ([25 x i8]* @.str2, i32 0, i32 0), i32 72, i32 %141, i32 %142, i32 %143), !dbg !2949
  store i32 0, i32* %retval.i14.i, !dbg !2950
  br label %_ZN5Graph12getOutDegreeEj.exit30.i, !dbg !2950

_ZN5Graph12getOutDegreeEj.exit30.i:               ; preds = %if.end.i29.i, %if.then.i24.i
  %144 = load i32* %retval.i14.i, !dbg !2951
  %145 = bitcast i32* %retval.i14.i to i8*, !dbg !2951
  %146 = bitcast %struct.Graph** %this.addr.i15.i to i8*, !dbg !2951
  %147 = bitcast i32* %src.addr.i16.i to i8*, !dbg !2951
  %148 = bitcast i32* %id.i17.i to i8*, !dbg !2951
  %call15.i = call i32 (i8*, ...)* @printf(i8* getelementptr inbounds ([62 x i8]* @.str3, i32 0, i32 0), i8* getelementptr inbounds ([25 x i8]* @.str2, i32 0, i32 0), i32 94, i32 %125, i32 %126, i32 %127, i32 %144), !dbg !2945
  br label %if.end18.i, !dbg !2952

if.else.i:                                        ; preds = %if.end10.i
  %nnodes16.i = getelementptr inbounds %struct.Graph* %this1.i5, i32 0, i32 1, !dbg !2953
  %149 = load i32* %nnodes16.i, align 4, !dbg !2953
  %call17.i = call i32 (i8*, ...)* @printf(i8* getelementptr inbounds ([53 x i8]* @.str1, i32 0, i32 0), i8* getelementptr inbounds ([25 x i8]* @.str2, i32 0, i32 0), i32 96, i32 %125, i32 %126, i32 %149), !dbg !2953
  br label %if.end18.i

if.end18.i:                                       ; preds = %if.else.i, %_ZN5Graph12getOutDegreeEj.exit30.i
  %nnodes19.i = getelementptr inbounds %struct.Graph* %this1.i5, i32 0, i32 1, !dbg !2954
  %150 = load i32* %nnodes19.i, align 4, !dbg !2954
  store i32 %150, i32* %retval.i1, !dbg !2954
  br label %_ZN5Graph14getDestinationEjj.exit, !dbg !2954

_ZN5Graph14getDestinationEjj.exit:                ; preds = %if.end18.i, %if.end.i13, %if.then8.i
  %151 = load i32* %retval.i1, !dbg !2955
  %152 = bitcast i32* %retval.i1 to i8*, !dbg !2955
  %153 = bitcast %struct.Graph** %this.addr.i2 to i8*, !dbg !2955
  %154 = bitcast i32* %src.addr.i3 to i8*, !dbg !2955
  %155 = bitcast i32* %nthedge.addr.i to i8*, !dbg !2955
  %156 = bitcast i32* %id.i4 to i8*, !dbg !2955
  %157 = bitcast i32* %edge.i to i8*, !dbg !2955
  store i32 %151, i32* %dst, align 4, !dbg !2914
  %158 = load i32* %ii, align 4, !dbg !2956
  %159 = load i32* %ee, align 4, !dbg !2956
  %160 = bitcast i32* %retval.i31 to i8*
  %161 = bitcast %struct.Graph** %this.addr.i32 to i8*
  %162 = bitcast i32* %src.addr.i33 to i8*
  %163 = bitcast i32* %nthedge.addr.i34 to i8*
  %164 = bitcast i32* %id.i35 to i8*
  %165 = bitcast i32* %edge.i36 to i8*
  store %struct.Graph* %this1, %struct.Graph** %this.addr.i32, align 8
  store i32 %158, i32* %src.addr.i33, align 4
  store i32 %159, i32* %nthedge.addr.i34, align 4
  %this1.i37 = load %struct.Graph** %this.addr.i32
  %166 = load i32* getelementptr inbounds (%struct.dim3* @blockIdx, i32 0, i32 0), align 4, !dbg !2957
  %167 = load i32* getelementptr inbounds (%struct.dim3* @blockDim, i32 0, i32 0), align 4, !dbg !2957
  %mul.i38 = mul i32 %166, %167, !dbg !2957
  %168 = load i32* getelementptr inbounds (%struct.dim3* @threadIdx, i32 0, i32 0), align 4, !dbg !2957
  %add.i39 = add i32 %mul.i38, %168, !dbg !2957
  store i32 %add.i39, i32* %id.i35, align 4, !dbg !2957
  %169 = load i32* %src.addr.i33, align 4, !dbg !2958
  %nnodes.i40 = getelementptr inbounds %struct.Graph* %this1.i37, i32 0, i32 1, !dbg !2958
  %170 = load i32* %nnodes.i40, align 4, !dbg !2958
  %cmp.i41 = icmp ult i32 %169, %170, !dbg !2958
  br i1 %cmp.i41, label %land.lhs.true.i45, label %if.end9.i, !dbg !2958

land.lhs.true.i45:                                ; preds = %_ZN5Graph14getDestinationEjj.exit
  %171 = load i32* %nthedge.addr.i34, align 4, !dbg !2958
  %172 = load i32* %src.addr.i33, align 4, !dbg !2958
  %173 = bitcast i32* %retval.i.i27 to i8*
  %174 = bitcast %struct.Graph** %this.addr.i.i28 to i8*
  %175 = bitcast i32* %src.addr.i.i29 to i8*
  %176 = bitcast i32* %id.i.i30 to i8*
  store %struct.Graph* %this1.i37, %struct.Graph** %this.addr.i.i28, align 8
  store i32 %172, i32* %src.addr.i.i29, align 4
  %this1.i.i42 = load %struct.Graph** %this.addr.i.i28
  %177 = load i32* %src.addr.i.i29, align 4, !dbg !2959
  %nnodes.i.i43 = getelementptr inbounds %struct.Graph* %this1.i.i42, i32 0, i32 1, !dbg !2959
  %178 = load i32* %nnodes.i.i43, align 4, !dbg !2959
  %cmp.i.i44 = icmp ult i32 %177, %178, !dbg !2959
  br i1 %cmp.i.i44, label %if.then.i.i49, label %if.end.i.i54, !dbg !2959

if.then.i.i49:                                    ; preds = %land.lhs.true.i45
  %179 = load i32* %src.addr.i.i29, align 4, !dbg !2960
  %idxprom.i.i46 = zext i32 %179 to i64, !dbg !2960
  %noutgoing.i.i47 = getelementptr inbounds %struct.Graph* %this1.i.i42, i32 0, i32 3, !dbg !2960
  %180 = load i32** %noutgoing.i.i47, align 8, !dbg !2960
  %arrayidx.i.i48 = getelementptr inbounds i32* %180, i64 %idxprom.i.i46, !dbg !2960
  %181 = load i32* %arrayidx.i.i48, align 4, !dbg !2960
  store i32 %181, i32* %retval.i.i27, !dbg !2960
  br label %_ZN5Graph12getOutDegreeEj.exit.i56, !dbg !2960

if.end.i.i54:                                     ; preds = %land.lhs.true.i45
  %182 = load i32* getelementptr inbounds (%struct.dim3* @blockIdx, i32 0, i32 0), align 4, !dbg !2961
  %183 = load i32* getelementptr inbounds (%struct.dim3* @blockDim, i32 0, i32 0), align 4, !dbg !2961
  %mul.i.i50 = mul i32 %182, %183, !dbg !2961
  %184 = load i32* getelementptr inbounds (%struct.dim3* @threadIdx, i32 0, i32 0), align 4, !dbg !2961
  %add.i.i51 = add i32 %mul.i.i50, %184, !dbg !2961
  store i32 %add.i.i51, i32* %id.i.i30, align 4, !dbg !2961
  %185 = load i32* %id.i.i30, align 4, !dbg !2962
  %186 = load i32* %src.addr.i.i29, align 4, !dbg !2962
  %nnodes2.i.i52 = getelementptr inbounds %struct.Graph* %this1.i.i42, i32 0, i32 1, !dbg !2962
  %187 = load i32* %nnodes2.i.i52, align 4, !dbg !2962
  %call.i.i53 = call i32 (i8*, ...)* @printf(i8* getelementptr inbounds ([53 x i8]* @.str1, i32 0, i32 0), i8* getelementptr inbounds ([25 x i8]* @.str2, i32 0, i32 0), i32 72, i32 %185, i32 %186, i32 %187), !dbg !2962
  store i32 0, i32* %retval.i.i27, !dbg !2963
  br label %_ZN5Graph12getOutDegreeEj.exit.i56, !dbg !2963

_ZN5Graph12getOutDegreeEj.exit.i56:               ; preds = %if.end.i.i54, %if.then.i.i49
  %188 = load i32* %retval.i.i27, !dbg !2964
  %189 = bitcast i32* %retval.i.i27 to i8*, !dbg !2964
  %190 = bitcast %struct.Graph** %this.addr.i.i28 to i8*, !dbg !2964
  %191 = bitcast i32* %src.addr.i.i29 to i8*, !dbg !2964
  %192 = bitcast i32* %id.i.i30 to i8*, !dbg !2964
  %cmp2.i55 = icmp ult i32 %171, %188, !dbg !2958
  br i1 %cmp2.i55, label %if.then.i62, label %if.end9.i, !dbg !2958

if.then.i62:                                      ; preds = %_ZN5Graph12getOutDegreeEj.exit.i56
  %193 = load i32* %src.addr.i33, align 4, !dbg !2965
  %194 = bitcast i32* %retval.i1.i22 to i8*
  %195 = bitcast %struct.Graph** %this.addr.i2.i23 to i8*
  %196 = bitcast i32* %src.addr.i3.i24 to i8*
  %197 = bitcast i32* %id.i4.i25 to i8*
  %198 = bitcast i32* %srcnout.i.i26 to i8*
  store %struct.Graph* %this1.i37, %struct.Graph** %this.addr.i2.i23, align 8
  store i32 %193, i32* %src.addr.i3.i24, align 4
  %this1.i5.i57 = load %struct.Graph** %this.addr.i2.i23
  %199 = load i32* getelementptr inbounds (%struct.dim3* @blockIdx, i32 0, i32 0), align 4, !dbg !2966
  %200 = load i32* getelementptr inbounds (%struct.dim3* @blockDim, i32 0, i32 0), align 4, !dbg !2966
  %mul.i6.i58 = mul i32 %199, %200, !dbg !2966
  %201 = load i32* getelementptr inbounds (%struct.dim3* @threadIdx, i32 0, i32 0), align 4, !dbg !2966
  %add.i7.i59 = add i32 %mul.i6.i58, %201, !dbg !2966
  store i32 %add.i7.i59, i32* %id.i4.i25, align 4, !dbg !2966
  %202 = load i32* %src.addr.i3.i24, align 4, !dbg !2967
  %nnodes.i8.i60 = getelementptr inbounds %struct.Graph* %this1.i5.i57, i32 0, i32 1, !dbg !2967
  %203 = load i32* %nnodes.i8.i60, align 4, !dbg !2967
  %cmp.i9.i61 = icmp ult i32 %202, %203, !dbg !2967
  br i1 %cmp.i9.i61, label %if.then.i10.i66, label %if.end12.i.i95, !dbg !2967

if.then.i10.i66:                                  ; preds = %if.then.i62
  %204 = load i32* %src.addr.i3.i24, align 4, !dbg !2968
  %205 = bitcast i32* %retval.i.i.i18 to i8*
  %206 = bitcast %struct.Graph** %this.addr.i.i.i19 to i8*
  %207 = bitcast i32* %src.addr.i.i.i20 to i8*
  %208 = bitcast i32* %id.i.i.i21 to i8*
  store %struct.Graph* %this1.i5.i57, %struct.Graph** %this.addr.i.i.i19, align 8
  store i32 %204, i32* %src.addr.i.i.i20, align 4
  %this1.i.i.i63 = load %struct.Graph** %this.addr.i.i.i19
  %209 = load i32* %src.addr.i.i.i20, align 4, !dbg !2969
  %nnodes.i.i.i64 = getelementptr inbounds %struct.Graph* %this1.i.i.i63, i32 0, i32 1, !dbg !2969
  %210 = load i32* %nnodes.i.i.i64, align 4, !dbg !2969
  %cmp.i.i.i65 = icmp ult i32 %209, %210, !dbg !2969
  br i1 %cmp.i.i.i65, label %if.then.i.i.i70, label %if.end.i.i.i75, !dbg !2969

if.then.i.i.i70:                                  ; preds = %if.then.i10.i66
  %211 = load i32* %src.addr.i.i.i20, align 4, !dbg !2970
  %idxprom.i.i.i67 = zext i32 %211 to i64, !dbg !2970
  %noutgoing.i.i.i68 = getelementptr inbounds %struct.Graph* %this1.i.i.i63, i32 0, i32 3, !dbg !2970
  %212 = load i32** %noutgoing.i.i.i68, align 8, !dbg !2970
  %arrayidx.i.i.i69 = getelementptr inbounds i32* %212, i64 %idxprom.i.i.i67, !dbg !2970
  %213 = load i32* %arrayidx.i.i.i69, align 4, !dbg !2970
  store i32 %213, i32* %retval.i.i.i18, !dbg !2970
  br label %_ZN5Graph12getOutDegreeEj.exit.i.i77, !dbg !2970

if.end.i.i.i75:                                   ; preds = %if.then.i10.i66
  %214 = load i32* getelementptr inbounds (%struct.dim3* @blockIdx, i32 0, i32 0), align 4, !dbg !2971
  %215 = load i32* getelementptr inbounds (%struct.dim3* @blockDim, i32 0, i32 0), align 4, !dbg !2971
  %mul.i.i.i71 = mul i32 %214, %215, !dbg !2971
  %216 = load i32* getelementptr inbounds (%struct.dim3* @threadIdx, i32 0, i32 0), align 4, !dbg !2971
  %add.i.i.i72 = add i32 %mul.i.i.i71, %216, !dbg !2971
  store i32 %add.i.i.i72, i32* %id.i.i.i21, align 4, !dbg !2971
  %217 = load i32* %id.i.i.i21, align 4, !dbg !2972
  %218 = load i32* %src.addr.i.i.i20, align 4, !dbg !2972
  %nnodes2.i.i.i73 = getelementptr inbounds %struct.Graph* %this1.i.i.i63, i32 0, i32 1, !dbg !2972
  %219 = load i32* %nnodes2.i.i.i73, align 4, !dbg !2972
  %call.i.i.i74 = call i32 (i8*, ...)* @printf(i8* getelementptr inbounds ([53 x i8]* @.str1, i32 0, i32 0), i8* getelementptr inbounds ([25 x i8]* @.str2, i32 0, i32 0), i32 72, i32 %217, i32 %218, i32 %219), !dbg !2972
  store i32 0, i32* %retval.i.i.i18, !dbg !2973
  br label %_ZN5Graph12getOutDegreeEj.exit.i.i77, !dbg !2973

_ZN5Graph12getOutDegreeEj.exit.i.i77:             ; preds = %if.end.i.i.i75, %if.then.i.i.i70
  %220 = load i32* %retval.i.i.i18, !dbg !2974
  %221 = bitcast i32* %retval.i.i.i18 to i8*, !dbg !2974
  %222 = bitcast %struct.Graph** %this.addr.i.i.i19 to i8*, !dbg !2974
  %223 = bitcast i32* %src.addr.i.i.i20 to i8*, !dbg !2974
  %224 = bitcast i32* %id.i.i.i21 to i8*, !dbg !2974
  store i32 %220, i32* %srcnout.i.i26, align 4, !dbg !2968
  %225 = load i32* %srcnout.i.i26, align 4, !dbg !2975
  %cmp2.i.i76 = icmp ugt i32 %225, 0, !dbg !2975
  br i1 %cmp2.i.i76, label %land.lhs.true.i.i83, label %if.end.i13.i92, !dbg !2975

land.lhs.true.i.i83:                              ; preds = %_ZN5Graph12getOutDegreeEj.exit.i.i77
  %226 = load i32* %src.addr.i3.i24, align 4, !dbg !2975
  %idxprom.i11.i78 = zext i32 %226 to i64, !dbg !2975
  %srcsrc.i.i79 = getelementptr inbounds %struct.Graph* %this1.i5.i57, i32 0, i32 5, !dbg !2975
  %227 = load i32** %srcsrc.i.i79, align 8, !dbg !2975
  %arrayidx.i12.i80 = getelementptr inbounds i32* %227, i64 %idxprom.i11.i78, !dbg !2975
  %228 = load i32* %arrayidx.i12.i80, align 4, !dbg !2975
  %nnodes3.i.i81 = getelementptr inbounds %struct.Graph* %this1.i5.i57, i32 0, i32 1, !dbg !2975
  %229 = load i32* %nnodes3.i.i81, align 4, !dbg !2975
  %cmp4.i.i82 = icmp ult i32 %228, %229, !dbg !2975
  br i1 %cmp4.i.i82, label %if.then5.i.i90, label %if.end.i13.i92, !dbg !2975

if.then5.i.i90:                                   ; preds = %land.lhs.true.i.i83
  %230 = load i32* %src.addr.i3.i24, align 4, !dbg !2976
  %idxprom6.i.i84 = zext i32 %230 to i64, !dbg !2976
  %srcsrc7.i.i85 = getelementptr inbounds %struct.Graph* %this1.i5.i57, i32 0, i32 5, !dbg !2976
  %231 = load i32** %srcsrc7.i.i85, align 8, !dbg !2976
  %arrayidx8.i.i86 = getelementptr inbounds i32* %231, i64 %idxprom6.i.i84, !dbg !2976
  %232 = load i32* %arrayidx8.i.i86, align 4, !dbg !2976
  %idxprom9.i.i87 = zext i32 %232 to i64, !dbg !2976
  %psrc.i.i88 = getelementptr inbounds %struct.Graph* %this1.i5.i57, i32 0, i32 6, !dbg !2976
  %233 = load i32** %psrc.i.i88, align 8, !dbg !2976
  %arrayidx10.i.i89 = getelementptr inbounds i32* %233, i64 %idxprom9.i.i87, !dbg !2976
  %234 = load i32* %arrayidx10.i.i89, align 4, !dbg !2976
  store i32 %234, i32* %retval.i1.i22, !dbg !2976
  br label %_ZN5Graph12getFirstEdgeEj.exit.i98, !dbg !2976

if.end.i13.i92:                                   ; preds = %land.lhs.true.i.i83, %_ZN5Graph12getOutDegreeEj.exit.i.i77
  %235 = load i32* %id.i4.i25, align 4, !dbg !2977
  %236 = load i32* %srcnout.i.i26, align 4, !dbg !2977
  %call11.i.i91 = call i32 (i8*, ...)* @printf(i8* getelementptr inbounds ([53 x i8]* @.str4, i32 0, i32 0), i8* getelementptr inbounds ([25 x i8]* @.str2, i32 0, i32 0), i32 126, i32 %235, i32 0, i32 %236), !dbg !2977
  store i32 0, i32* %retval.i1.i22, !dbg !2978
  br label %_ZN5Graph12getFirstEdgeEj.exit.i98, !dbg !2978

if.end12.i.i95:                                   ; preds = %if.then.i62
  %237 = load i32* %id.i4.i25, align 4, !dbg !2979
  %238 = load i32* %src.addr.i3.i24, align 4, !dbg !2979
  %nnodes13.i.i93 = getelementptr inbounds %struct.Graph* %this1.i5.i57, i32 0, i32 1, !dbg !2979
  %239 = load i32* %nnodes13.i.i93, align 4, !dbg !2979
  %call14.i.i94 = call i32 (i8*, ...)* @printf(i8* getelementptr inbounds ([53 x i8]* @.str1, i32 0, i32 0), i8* getelementptr inbounds ([25 x i8]* @.str2, i32 0, i32 0), i32 129, i32 %237, i32 %238, i32 %239), !dbg !2979
  store i32 0, i32* %retval.i1.i22, !dbg !2980
  br label %_ZN5Graph12getFirstEdgeEj.exit.i98, !dbg !2980

_ZN5Graph12getFirstEdgeEj.exit.i98:               ; preds = %if.end12.i.i95, %if.end.i13.i92, %if.then5.i.i90
  %240 = load i32* %retval.i1.i22, !dbg !2981
  %241 = bitcast i32* %retval.i1.i22 to i8*, !dbg !2981
  %242 = bitcast %struct.Graph** %this.addr.i2.i23 to i8*, !dbg !2981
  %243 = bitcast i32* %src.addr.i3.i24 to i8*, !dbg !2981
  %244 = bitcast i32* %id.i4.i25 to i8*, !dbg !2981
  %245 = bitcast i32* %srcnout.i.i26 to i8*, !dbg !2981
  %246 = load i32* %nthedge.addr.i34, align 4, !dbg !2965
  %add4.i96 = add i32 %240, %246, !dbg !2965
  store i32 %add4.i96, i32* %edge.i36, align 4, !dbg !2965
  %247 = load i32* %edge.i36, align 4, !dbg !2982
  %tobool.i97 = icmp ne i32 %247, 0, !dbg !2982
  br i1 %tobool.i97, label %land.lhs.true5.i102, label %if.end.i106, !dbg !2982

land.lhs.true5.i102:                              ; preds = %_ZN5Graph12getFirstEdgeEj.exit.i98
  %248 = load i32* %edge.i36, align 4, !dbg !2982
  %nedges.i99 = getelementptr inbounds %struct.Graph* %this1.i37, i32 0, i32 2, !dbg !2982
  %249 = load i32* %nedges.i99, align 4, !dbg !2982
  %add6.i100 = add i32 %249, 1, !dbg !2982
  %cmp7.i101 = icmp ult i32 %248, %add6.i100, !dbg !2982
  br i1 %cmp7.i101, label %if.then8.i105, label %if.end.i106, !dbg !2982

if.then8.i105:                                    ; preds = %land.lhs.true5.i102
  %250 = load i32* %edge.i36, align 4, !dbg !2983
  %idxprom.i103 = zext i32 %250 to i64, !dbg !2983
  %edgessrcwt.i = getelementptr inbounds %struct.Graph* %this1.i37, i32 0, i32 8, !dbg !2983
  %251 = load i32** %edgessrcwt.i, align 8, !dbg !2983
  %arrayidx.i104 = getelementptr inbounds i32* %251, i64 %idxprom.i103, !dbg !2983
  %252 = load i32* %arrayidx.i104, align 4, !dbg !2983
  store i32 %252, i32* %retval.i31, !dbg !2983
  br label %_ZN5Graph9getWeightEjj.exit, !dbg !2983

if.end.i106:                                      ; preds = %land.lhs.true5.i102, %_ZN5Graph12getFirstEdgeEj.exit.i98
  store i32 1000000000, i32* %retval.i31, !dbg !2984
  br label %_ZN5Graph9getWeightEjj.exit, !dbg !2984

if.end9.i:                                        ; preds = %_ZN5Graph12getOutDegreeEj.exit.i56, %_ZN5Graph14getDestinationEjj.exit
  %253 = load i32* %src.addr.i33, align 4, !dbg !2985
  %nnodes10.i = getelementptr inbounds %struct.Graph* %this1.i37, i32 0, i32 1, !dbg !2985
  %254 = load i32* %nnodes10.i, align 4, !dbg !2985
  %cmp11.i = icmp ult i32 %253, %254, !dbg !2985
  %255 = load i32* %id.i35, align 4, !dbg !2986
  %256 = load i32* %src.addr.i33, align 4, !dbg !2986
  br i1 %cmp11.i, label %if.then12.i, label %if.else.i120, !dbg !2985

if.then12.i:                                      ; preds = %if.end9.i
  %257 = load i32* %nthedge.addr.i34, align 4, !dbg !2986
  %258 = load i32* %src.addr.i33, align 4, !dbg !2986
  %259 = bitcast i32* %retval.i14.i14 to i8*
  %260 = bitcast %struct.Graph** %this.addr.i15.i15 to i8*
  %261 = bitcast i32* %src.addr.i16.i16 to i8*
  %262 = bitcast i32* %id.i17.i17 to i8*
  store %struct.Graph* %this1.i37, %struct.Graph** %this.addr.i15.i15, align 8
  store i32 %258, i32* %src.addr.i16.i16, align 4
  %this1.i18.i107 = load %struct.Graph** %this.addr.i15.i15
  %263 = load i32* %src.addr.i16.i16, align 4, !dbg !2987
  %nnodes.i19.i108 = getelementptr inbounds %struct.Graph* %this1.i18.i107, i32 0, i32 1, !dbg !2987
  %264 = load i32* %nnodes.i19.i108, align 4, !dbg !2987
  %cmp.i20.i109 = icmp ult i32 %263, %264, !dbg !2987
  br i1 %cmp.i20.i109, label %if.then.i24.i113, label %if.end.i29.i118, !dbg !2987

if.then.i24.i113:                                 ; preds = %if.then12.i
  %265 = load i32* %src.addr.i16.i16, align 4, !dbg !2988
  %idxprom.i21.i110 = zext i32 %265 to i64, !dbg !2988
  %noutgoing.i22.i111 = getelementptr inbounds %struct.Graph* %this1.i18.i107, i32 0, i32 3, !dbg !2988
  %266 = load i32** %noutgoing.i22.i111, align 8, !dbg !2988
  %arrayidx.i23.i112 = getelementptr inbounds i32* %266, i64 %idxprom.i21.i110, !dbg !2988
  %267 = load i32* %arrayidx.i23.i112, align 4, !dbg !2988
  store i32 %267, i32* %retval.i14.i14, !dbg !2988
  br label %_ZN5Graph12getOutDegreeEj.exit30.i119, !dbg !2988

if.end.i29.i118:                                  ; preds = %if.then12.i
  %268 = load i32* getelementptr inbounds (%struct.dim3* @blockIdx, i32 0, i32 0), align 4, !dbg !2989
  %269 = load i32* getelementptr inbounds (%struct.dim3* @blockDim, i32 0, i32 0), align 4, !dbg !2989
  %mul.i25.i114 = mul i32 %268, %269, !dbg !2989
  %270 = load i32* getelementptr inbounds (%struct.dim3* @threadIdx, i32 0, i32 0), align 4, !dbg !2989
  %add.i26.i115 = add i32 %mul.i25.i114, %270, !dbg !2989
  store i32 %add.i26.i115, i32* %id.i17.i17, align 4, !dbg !2989
  %271 = load i32* %id.i17.i17, align 4, !dbg !2990
  %272 = load i32* %src.addr.i16.i16, align 4, !dbg !2990
  %nnodes2.i27.i116 = getelementptr inbounds %struct.Graph* %this1.i18.i107, i32 0, i32 1, !dbg !2990
  %273 = load i32* %nnodes2.i27.i116, align 4, !dbg !2990
  %call.i28.i117 = call i32 (i8*, ...)* @printf(i8* getelementptr inbounds ([53 x i8]* @.str1, i32 0, i32 0), i8* getelementptr inbounds ([25 x i8]* @.str2, i32 0, i32 0), i32 72, i32 %271, i32 %272, i32 %273), !dbg !2990
  store i32 0, i32* %retval.i14.i14, !dbg !2991
  br label %_ZN5Graph12getOutDegreeEj.exit30.i119, !dbg !2991

_ZN5Graph12getOutDegreeEj.exit30.i119:            ; preds = %if.end.i29.i118, %if.then.i24.i113
  %274 = load i32* %retval.i14.i14, !dbg !2992
  %275 = bitcast i32* %retval.i14.i14 to i8*, !dbg !2992
  %276 = bitcast %struct.Graph** %this.addr.i15.i15 to i8*, !dbg !2992
  %277 = bitcast i32* %src.addr.i16.i16 to i8*, !dbg !2992
  %278 = bitcast i32* %id.i17.i17 to i8*, !dbg !2992
  %call14.i = call i32 (i8*, ...)* @printf(i8* getelementptr inbounds ([62 x i8]* @.str3, i32 0, i32 0), i8* getelementptr inbounds ([25 x i8]* @.str2, i32 0, i32 0), i32 111, i32 %255, i32 %256, i32 %257, i32 %274), !dbg !2986
  br label %if.end17.i, !dbg !2993

if.else.i120:                                     ; preds = %if.end9.i
  %nnodes15.i = getelementptr inbounds %struct.Graph* %this1.i37, i32 0, i32 1, !dbg !2994
  %279 = load i32* %nnodes15.i, align 4, !dbg !2994
  %call16.i = call i32 (i8*, ...)* @printf(i8* getelementptr inbounds ([53 x i8]* @.str1, i32 0, i32 0), i8* getelementptr inbounds ([25 x i8]* @.str2, i32 0, i32 0), i32 113, i32 %255, i32 %256, i32 %279), !dbg !2994
  br label %if.end17.i

if.end17.i:                                       ; preds = %if.else.i120, %_ZN5Graph12getOutDegreeEj.exit30.i119
  store i32 1000000000, i32* %retval.i31, !dbg !2995
  br label %_ZN5Graph9getWeightEjj.exit, !dbg !2995

_ZN5Graph9getWeightEjj.exit:                      ; preds = %if.end17.i, %if.end.i106, %if.then8.i105
  %280 = load i32* %retval.i31, !dbg !2996
  %281 = bitcast i32* %retval.i31 to i8*, !dbg !2996
  %282 = bitcast %struct.Graph** %this.addr.i32 to i8*, !dbg !2996
  %283 = bitcast i32* %src.addr.i33 to i8*, !dbg !2996
  %284 = bitcast i32* %nthedge.addr.i34 to i8*, !dbg !2996
  %285 = bitcast i32* %id.i35 to i8*, !dbg !2996
  %286 = bitcast i32* %edge.i36 to i8*, !dbg !2996
  store i32 %280, i32* %wt, align 4, !dbg !2956
  %287 = load i32* %ii, align 4, !dbg !2997
  %288 = load i32* %dst, align 4, !dbg !2997
  %289 = load i32* %wt, align 4, !dbg !2997
  %call9 = call i32 (i8*, ...)* @printf(i8* getelementptr inbounds ([10 x i8]* @.str6, i32 0, i32 0), i32 %287, i32 %288, i32 %289), !dbg !2997
  %290 = load i32* %edgescounted, align 4, !dbg !2998
  %inc = add i32 %290, 1, !dbg !2998
  store i32 %inc, i32* %edgescounted, align 4, !dbg !2998
  %291 = load i32* %ee, align 4, !dbg !2912
  %inc10 = add i32 %291, 1, !dbg !2912
  store i32 %inc10, i32* %ee, align 4, !dbg !2912
  br label %for.cond4, !dbg !2912

for.inc11:                                        ; preds = %for.cond4
  %inc12 = add i32 %27, 1, !dbg !2902
  store i32 %inc12, i32* %ii, align 4, !dbg !2902
  br label %for.cond, !dbg !2902

for.end13:                                        ; preds = %for.cond
  %nedges14 = getelementptr inbounds %struct.Graph* %this1, i32 0, i32 2, !dbg !2999
  %292 = load i32* %nedges14, align 4, !dbg !2999
  %293 = load i32* %edgescounted, align 4, !dbg !2999
  %cmp15 = icmp ne i32 %292, %293, !dbg !2999
  br i1 %cmp15, label %if.then, label %if.end, !dbg !2999

if.then:                                          ; preds = %for.end13
  %nedges16 = getelementptr inbounds %struct.Graph* %this1, i32 0, i32 2, !dbg !3000
  %294 = load i32* %nedges16, align 4, !dbg !3000
  %295 = load i32* %edgescounted, align 4, !dbg !3000
  %call17 = call i32 (i8*, ...)* @printf(i8* getelementptr inbounds ([36 x i8]* @.str7, i32 0, i32 0), i32 %294, i32 %295), !dbg !3000
  br label %if.end, !dbg !3002

if.end:                                           ; preds = %if.then, %for.end13
  ret void, !dbg !3003
}

define i32 @_ZN5Graph4initEv(%struct.Graph* %this) nounwind uwtable align 2 {
entry:
  %this.addr = alloca %struct.Graph*, align 8
  store %struct.Graph* %this, %struct.Graph** %this.addr, align 8
  %this1 = load %struct.Graph** %this.addr
  %edgessrcdst = getelementptr inbounds %struct.Graph* %this1, i32 0, i32 7, !dbg !3004
  store i32* null, i32** %edgessrcdst, align 8, !dbg !3004
  %psrc = getelementptr inbounds %struct.Graph* %this1, i32 0, i32 6, !dbg !3004
  store i32* null, i32** %psrc, align 8, !dbg !3004
  %srcsrc = getelementptr inbounds %struct.Graph* %this1, i32 0, i32 5, !dbg !3004
  store i32* null, i32** %srcsrc, align 8, !dbg !3004
  %nincoming = getelementptr inbounds %struct.Graph* %this1, i32 0, i32 4, !dbg !3004
  store i32* null, i32** %nincoming, align 8, !dbg !3004
  %noutgoing = getelementptr inbounds %struct.Graph* %this1, i32 0, i32 3, !dbg !3004
  store i32* null, i32** %noutgoing, align 8, !dbg !3004
  %edgessrcwt = getelementptr inbounds %struct.Graph* %this1, i32 0, i32 8, !dbg !3006
  store i32* null, i32** %edgessrcwt, align 8, !dbg !3006
  %source = getelementptr inbounds %struct.Graph* %this1, i32 0, i32 10, !dbg !3007
  store i32 0, i32* %source, align 4, !dbg !3007
  %nedges = getelementptr inbounds %struct.Graph* %this1, i32 0, i32 2, !dbg !3008
  store i32 0, i32* %nedges, align 4, !dbg !3008
  %nnodes = getelementptr inbounds %struct.Graph* %this1, i32 0, i32 1, !dbg !3008
  store i32 0, i32* %nnodes, align 4, !dbg !3008
  %memory = getelementptr inbounds %struct.Graph* %this1, i32 0, i32 0, !dbg !3009
  store i32 0, i32* %memory, align 4, !dbg !3009
  %maxInDegree = getelementptr inbounds %struct.Graph* %this1, i32 0, i32 12, !dbg !3010
  store i32* null, i32** %maxInDegree, align 8, !dbg !3010
  %maxOutDegree = getelementptr inbounds %struct.Graph* %this1, i32 0, i32 11, !dbg !3010
  store i32* null, i32** %maxOutDegree, align 8, !dbg !3010
  %diameter = getelementptr inbounds %struct.Graph* %this1, i32 0, i32 13, !dbg !3011
  store i32 0, i32* %diameter, align 4, !dbg !3011
  %foundStats = getelementptr inbounds %struct.Graph* %this1, i32 0, i32 14, !dbg !3012
  store i8 0, i8* %foundStats, align 1, !dbg !3012
  ret i32 0, !dbg !3013
}

define i32 @_ZN5Graph11allocOnHostEv(%struct.Graph* %this) nounwind uwtable align 2 {
entry:
  %this.addr = alloca %struct.Graph*, align 8
  store %struct.Graph* %this, %struct.Graph** %this.addr, align 8
  %this1 = load %struct.Graph** %this.addr
  %nedges = getelementptr inbounds %struct.Graph* %this1, i32 0, i32 2, !dbg !3014
  %0 = load i32* %nedges, align 4, !dbg !3014
  %add = add i32 %0, 1, !dbg !3014
  %conv = zext i32 %add to i64, !dbg !3014
  %mul = mul i64 %conv, 4, !dbg !3014
  %call = call noalias i8* @malloc(i64 %mul) nounwind, !dbg !3014
  %1 = bitcast i8* %call to i32*, !dbg !3014
  %edgessrcdst = getelementptr inbounds %struct.Graph* %this1, i32 0, i32 7, !dbg !3014
  store i32* %1, i32** %edgessrcdst, align 8, !dbg !3014
  %nedges2 = getelementptr inbounds %struct.Graph* %this1, i32 0, i32 2, !dbg !3016
  %2 = load i32* %nedges2, align 4, !dbg !3016
  %add3 = add i32 %2, 1, !dbg !3016
  %conv4 = zext i32 %add3 to i64, !dbg !3016
  %mul5 = mul i64 %conv4, 4, !dbg !3016
  %call6 = call noalias i8* @malloc(i64 %mul5) nounwind, !dbg !3016
  %3 = bitcast i8* %call6 to i32*, !dbg !3016
  %edgessrcwt = getelementptr inbounds %struct.Graph* %this1, i32 0, i32 8, !dbg !3016
  store i32* %3, i32** %edgessrcwt, align 8, !dbg !3016
  %nnodes = getelementptr inbounds %struct.Graph* %this1, i32 0, i32 1, !dbg !3017
  %4 = load i32* %nnodes, align 4, !dbg !3017
  %add7 = add i32 %4, 1, !dbg !3017
  %conv8 = zext i32 %add7 to i64, !dbg !3017
  %call9 = call noalias i8* @calloc(i64 %conv8, i64 4) nounwind, !dbg !3017
  %5 = bitcast i8* %call9 to i32*, !dbg !3017
  %psrc = getelementptr inbounds %struct.Graph* %this1, i32 0, i32 6, !dbg !3017
  store i32* %5, i32** %psrc, align 8, !dbg !3017
  %nedges10 = getelementptr inbounds %struct.Graph* %this1, i32 0, i32 2, !dbg !3018
  %6 = load i32* %nedges10, align 4, !dbg !3018
  %nnodes11 = getelementptr inbounds %struct.Graph* %this1, i32 0, i32 1, !dbg !3018
  %7 = load i32* %nnodes11, align 4, !dbg !3018
  %idxprom = zext i32 %7 to i64, !dbg !3018
  %psrc12 = getelementptr inbounds %struct.Graph* %this1, i32 0, i32 6, !dbg !3018
  %8 = load i32** %psrc12, align 8, !dbg !3018
  %arrayidx = getelementptr inbounds i32* %8, i64 %idxprom, !dbg !3018
  store i32 %6, i32* %arrayidx, align 4, !dbg !3018
  %nnodes13 = getelementptr inbounds %struct.Graph* %this1, i32 0, i32 1, !dbg !3019
  %9 = load i32* %nnodes13, align 4, !dbg !3019
  %conv14 = zext i32 %9 to i64, !dbg !3019
  %call15 = call noalias i8* @calloc(i64 %conv14, i64 4) nounwind, !dbg !3019
  %10 = bitcast i8* %call15 to i32*, !dbg !3019
  %noutgoing = getelementptr inbounds %struct.Graph* %this1, i32 0, i32 3, !dbg !3019
  store i32* %10, i32** %noutgoing, align 8, !dbg !3019
  %nnodes16 = getelementptr inbounds %struct.Graph* %this1, i32 0, i32 1, !dbg !3020
  %11 = load i32* %nnodes16, align 4, !dbg !3020
  %conv17 = zext i32 %11 to i64, !dbg !3020
  %call18 = call noalias i8* @calloc(i64 %conv17, i64 4) nounwind, !dbg !3020
  %12 = bitcast i8* %call18 to i32*, !dbg !3020
  %nincoming = getelementptr inbounds %struct.Graph* %this1, i32 0, i32 4, !dbg !3020
  store i32* %12, i32** %nincoming, align 8, !dbg !3020
  %nnodes19 = getelementptr inbounds %struct.Graph* %this1, i32 0, i32 1, !dbg !3021
  %13 = load i32* %nnodes19, align 4, !dbg !3021
  %conv20 = zext i32 %13 to i64, !dbg !3021
  %mul21 = mul i64 %conv20, 4, !dbg !3021
  %call22 = call noalias i8* @malloc(i64 %mul21) nounwind, !dbg !3021
  %14 = bitcast i8* %call22 to i32*, !dbg !3021
  %srcsrc = getelementptr inbounds %struct.Graph* %this1, i32 0, i32 5, !dbg !3021
  store i32* %14, i32** %srcsrc, align 8, !dbg !3021
  %call23 = call noalias i8* @malloc(i64 4) nounwind, !dbg !3022
  %15 = bitcast i8* %call23 to i32*, !dbg !3022
  %maxOutDegree = getelementptr inbounds %struct.Graph* %this1, i32 0, i32 11, !dbg !3022
  store i32* %15, i32** %maxOutDegree, align 8, !dbg !3022
  %call24 = call noalias i8* @malloc(i64 4) nounwind, !dbg !3023
  %16 = bitcast i8* %call24 to i32*, !dbg !3023
  %maxInDegree = getelementptr inbounds %struct.Graph* %this1, i32 0, i32 12, !dbg !3023
  store i32* %16, i32** %maxInDegree, align 8, !dbg !3023
  %maxOutDegree25 = getelementptr inbounds %struct.Graph* %this1, i32 0, i32 11, !dbg !3024
  %17 = load i32** %maxOutDegree25, align 8, !dbg !3024
  store i32 0, i32* %17, align 4, !dbg !3024
  %maxInDegree26 = getelementptr inbounds %struct.Graph* %this1, i32 0, i32 12, !dbg !3025
  %18 = load i32** %maxInDegree26, align 8, !dbg !3025
  store i32 0, i32* %18, align 4, !dbg !3025
  %memory = getelementptr inbounds %struct.Graph* %this1, i32 0, i32 0, !dbg !3026
  store i32 1, i32* %memory, align 4, !dbg !3026
  ret i32 0, !dbg !3027
}

declare noalias i8* @malloc(i64) nounwind

declare noalias i8* @calloc(i64, i64) nounwind

define i32 @_ZN5Graph13allocOnDeviceEv(%struct.Graph* %this) uwtable align 2 {
entry:
  %msg.addr.i61 = alloca i8*, align 8
  %e.i62 = alloca i32, align 4
  %msg.addr.i51 = alloca i8*, align 8
  %e.i52 = alloca i32, align 4
  %msg.addr.i41 = alloca i8*, align 8
  %e.i42 = alloca i32, align 4
  %msg.addr.i31 = alloca i8*, align 8
  %e.i32 = alloca i32, align 4
  %msg.addr.i21 = alloca i8*, align 8
  %e.i22 = alloca i32, align 4
  %msg.addr.i11 = alloca i8*, align 8
  %e.i12 = alloca i32, align 4
  %msg.addr.i1 = alloca i8*, align 8
  %e.i2 = alloca i32, align 4
  %msg.addr.i = alloca i8*, align 8
  %e.i = alloca i32, align 4
  %this.addr = alloca %struct.Graph*, align 8
  store %struct.Graph* %this, %struct.Graph** %this.addr, align 8
  %this1 = load %struct.Graph** %this.addr
  %edgessrcdst = getelementptr inbounds %struct.Graph* %this1, i32 0, i32 7, !dbg !3028
  %0 = bitcast i32** %edgessrcdst to i8**, !dbg !3028
  %nedges = getelementptr inbounds %struct.Graph* %this1, i32 0, i32 2, !dbg !3028
  %1 = load i32* %nedges, align 4, !dbg !3028
  %add = add i32 %1, 1, !dbg !3028
  %conv = zext i32 %add to i64, !dbg !3028
  %mul = mul i64 %conv, 4, !dbg !3028
  %call = call i32 @cudaMalloc(i8** %0, i64 %mul), !dbg !3028
  %cmp = icmp ne i32 %call, 0, !dbg !3028
  br i1 %cmp, label %if.then, label %if.end, !dbg !3028

if.then:                                          ; preds = %entry
  %2 = bitcast i8** %msg.addr.i to i8*
  %3 = bitcast i32* %e.i to i8*
  store i8* getelementptr inbounds ([30 x i8]* @.str8, i32 0, i32 0), i8** %msg.addr.i, align 8
  %call.i = call i32 @cudaThreadSynchronize(), !dbg !3030
  %call1.i = call i32 @cudaGetLastError(), !dbg !3033
  store i32 %call1.i, i32* %e.i, align 4, !dbg !3033
  %cmp.i = icmp ne i32 0, %call1.i, !dbg !3033
  br i1 %cmp.i, label %if.then.i, label %_ZL8CudaTestPc.exit, !dbg !3033

if.then.i:                                        ; preds = %if.then
  %4 = load %struct._IO_FILE** @stderr, align 8, !dbg !3034
  %5 = load i8** %msg.addr.i, align 8, !dbg !3034
  %6 = load i32* %e.i, align 4, !dbg !3034
  %call2.i = call i32 (%struct._IO_FILE*, i8*, ...)* @fprintf(%struct._IO_FILE* %4, i8* getelementptr inbounds ([8 x i8]* @.str97, i32 0, i32 0), i8* %5, i32 %6), !dbg !3034
  %7 = load %struct._IO_FILE** @stderr, align 8, !dbg !3036
  %8 = load i32* %e.i, align 4, !dbg !3036
  %call3.i = call i8* @cudaGetErrorString(i32 %8), !dbg !3036
  %call4.i = call i32 (%struct._IO_FILE*, i8*, ...)* @fprintf(%struct._IO_FILE* %7, i8* getelementptr inbounds ([4 x i8]* @.str98, i32 0, i32 0), i8* %call3.i), !dbg !3036
  call void @exit(i32 -1) noreturn nounwind, !dbg !3037
  unreachable, !dbg !3037

_ZL8CudaTestPc.exit:                              ; preds = %if.then
  %9 = bitcast i8** %msg.addr.i to i8*, !dbg !3038
  %10 = bitcast i32* %e.i to i8*, !dbg !3038
  br label %if.end, !dbg !3032

if.end:                                           ; preds = %_ZL8CudaTestPc.exit, %entry
  %edgessrcwt = getelementptr inbounds %struct.Graph* %this1, i32 0, i32 8, !dbg !3039
  %11 = bitcast i32** %edgessrcwt to i8**, !dbg !3039
  %nedges3 = getelementptr inbounds %struct.Graph* %this1, i32 0, i32 2, !dbg !3039
  %12 = load i32* %nedges3, align 4, !dbg !3039
  %add4 = add i32 %12, 1, !dbg !3039
  %conv5 = zext i32 %add4 to i64, !dbg !3039
  %mul6 = mul i64 %conv5, 4, !dbg !3039
  %call7 = call i32 @cudaMalloc(i8** %11, i64 %mul6), !dbg !3039
  %cmp8 = icmp ne i32 %call7, 0, !dbg !3039
  br i1 %cmp8, label %if.then9, label %if.end11, !dbg !3039

if.then9:                                         ; preds = %if.end
  %13 = bitcast i8** %msg.addr.i1 to i8*
  %14 = bitcast i32* %e.i2 to i8*
  store i8* getelementptr inbounds ([29 x i8]* @.str9, i32 0, i32 0), i8** %msg.addr.i1, align 8
  %call.i3 = call i32 @cudaThreadSynchronize(), !dbg !3040
  %call1.i4 = call i32 @cudaGetLastError(), !dbg !3042
  store i32 %call1.i4, i32* %e.i2, align 4, !dbg !3042
  %cmp.i5 = icmp ne i32 0, %call1.i4, !dbg !3042
  br i1 %cmp.i5, label %if.then.i9, label %_ZL8CudaTestPc.exit10, !dbg !3042

if.then.i9:                                       ; preds = %if.then9
  %15 = load %struct._IO_FILE** @stderr, align 8, !dbg !3043
  %16 = load i8** %msg.addr.i1, align 8, !dbg !3043
  %17 = load i32* %e.i2, align 4, !dbg !3043
  %call2.i6 = call i32 (%struct._IO_FILE*, i8*, ...)* @fprintf(%struct._IO_FILE* %15, i8* getelementptr inbounds ([8 x i8]* @.str97, i32 0, i32 0), i8* %16, i32 %17), !dbg !3043
  %18 = load %struct._IO_FILE** @stderr, align 8, !dbg !3044
  %19 = load i32* %e.i2, align 4, !dbg !3044
  %call3.i7 = call i8* @cudaGetErrorString(i32 %19), !dbg !3044
  %call4.i8 = call i32 (%struct._IO_FILE*, i8*, ...)* @fprintf(%struct._IO_FILE* %18, i8* getelementptr inbounds ([4 x i8]* @.str98, i32 0, i32 0), i8* %call3.i7), !dbg !3044
  call void @exit(i32 -1) noreturn nounwind, !dbg !3045
  unreachable, !dbg !3045

_ZL8CudaTestPc.exit10:                            ; preds = %if.then9
  %20 = bitcast i8** %msg.addr.i1 to i8*, !dbg !3046
  %21 = bitcast i32* %e.i2 to i8*, !dbg !3046
  br label %if.end11, !dbg !3041

if.end11:                                         ; preds = %_ZL8CudaTestPc.exit10, %if.end
  %psrc = getelementptr inbounds %struct.Graph* %this1, i32 0, i32 6, !dbg !3047
  %22 = bitcast i32** %psrc to i8**, !dbg !3047
  %nnodes = getelementptr inbounds %struct.Graph* %this1, i32 0, i32 1, !dbg !3047
  %23 = load i32* %nnodes, align 4, !dbg !3047
  %add12 = add i32 %23, 1, !dbg !3047
  %conv13 = zext i32 %add12 to i64, !dbg !3047
  %mul14 = mul i64 %conv13, 4, !dbg !3047
  %call15 = call i32 @cudaMalloc(i8** %22, i64 %mul14), !dbg !3047
  %cmp16 = icmp ne i32 %call15, 0, !dbg !3047
  br i1 %cmp16, label %if.then17, label %if.end19, !dbg !3047

if.then17:                                        ; preds = %if.end11
  %24 = bitcast i8** %msg.addr.i11 to i8*
  %25 = bitcast i32* %e.i12 to i8*
  store i8* getelementptr inbounds ([23 x i8]* @.str10, i32 0, i32 0), i8** %msg.addr.i11, align 8
  %call.i13 = call i32 @cudaThreadSynchronize(), !dbg !3048
  %call1.i14 = call i32 @cudaGetLastError(), !dbg !3050
  store i32 %call1.i14, i32* %e.i12, align 4, !dbg !3050
  %cmp.i15 = icmp ne i32 0, %call1.i14, !dbg !3050
  br i1 %cmp.i15, label %if.then.i19, label %_ZL8CudaTestPc.exit20, !dbg !3050

if.then.i19:                                      ; preds = %if.then17
  %26 = load %struct._IO_FILE** @stderr, align 8, !dbg !3051
  %27 = load i8** %msg.addr.i11, align 8, !dbg !3051
  %28 = load i32* %e.i12, align 4, !dbg !3051
  %call2.i16 = call i32 (%struct._IO_FILE*, i8*, ...)* @fprintf(%struct._IO_FILE* %26, i8* getelementptr inbounds ([8 x i8]* @.str97, i32 0, i32 0), i8* %27, i32 %28), !dbg !3051
  %29 = load %struct._IO_FILE** @stderr, align 8, !dbg !3052
  %30 = load i32* %e.i12, align 4, !dbg !3052
  %call3.i17 = call i8* @cudaGetErrorString(i32 %30), !dbg !3052
  %call4.i18 = call i32 (%struct._IO_FILE*, i8*, ...)* @fprintf(%struct._IO_FILE* %29, i8* getelementptr inbounds ([4 x i8]* @.str98, i32 0, i32 0), i8* %call3.i17), !dbg !3052
  call void @exit(i32 -1) noreturn nounwind, !dbg !3053
  unreachable, !dbg !3053

_ZL8CudaTestPc.exit20:                            ; preds = %if.then17
  %31 = bitcast i8** %msg.addr.i11 to i8*, !dbg !3054
  %32 = bitcast i32* %e.i12 to i8*, !dbg !3054
  br label %if.end19, !dbg !3049

if.end19:                                         ; preds = %_ZL8CudaTestPc.exit20, %if.end11
  %noutgoing = getelementptr inbounds %struct.Graph* %this1, i32 0, i32 3, !dbg !3055
  %33 = bitcast i32** %noutgoing to i8**, !dbg !3055
  %nnodes20 = getelementptr inbounds %struct.Graph* %this1, i32 0, i32 1, !dbg !3055
  %34 = load i32* %nnodes20, align 4, !dbg !3055
  %conv21 = zext i32 %34 to i64, !dbg !3055
  %mul22 = mul i64 %conv21, 4, !dbg !3055
  %call23 = call i32 @cudaMalloc(i8** %33, i64 %mul22), !dbg !3055
  %cmp24 = icmp ne i32 %call23, 0, !dbg !3055
  br i1 %cmp24, label %if.then25, label %if.end27, !dbg !3055

if.then25:                                        ; preds = %if.end19
  %35 = bitcast i8** %msg.addr.i21 to i8*
  %36 = bitcast i32* %e.i22 to i8*
  store i8* getelementptr inbounds ([28 x i8]* @.str11, i32 0, i32 0), i8** %msg.addr.i21, align 8
  %call.i23 = call i32 @cudaThreadSynchronize(), !dbg !3056
  %call1.i24 = call i32 @cudaGetLastError(), !dbg !3058
  store i32 %call1.i24, i32* %e.i22, align 4, !dbg !3058
  %cmp.i25 = icmp ne i32 0, %call1.i24, !dbg !3058
  br i1 %cmp.i25, label %if.then.i29, label %_ZL8CudaTestPc.exit30, !dbg !3058

if.then.i29:                                      ; preds = %if.then25
  %37 = load %struct._IO_FILE** @stderr, align 8, !dbg !3059
  %38 = load i8** %msg.addr.i21, align 8, !dbg !3059
  %39 = load i32* %e.i22, align 4, !dbg !3059
  %call2.i26 = call i32 (%struct._IO_FILE*, i8*, ...)* @fprintf(%struct._IO_FILE* %37, i8* getelementptr inbounds ([8 x i8]* @.str97, i32 0, i32 0), i8* %38, i32 %39), !dbg !3059
  %40 = load %struct._IO_FILE** @stderr, align 8, !dbg !3060
  %41 = load i32* %e.i22, align 4, !dbg !3060
  %call3.i27 = call i8* @cudaGetErrorString(i32 %41), !dbg !3060
  %call4.i28 = call i32 (%struct._IO_FILE*, i8*, ...)* @fprintf(%struct._IO_FILE* %40, i8* getelementptr inbounds ([4 x i8]* @.str98, i32 0, i32 0), i8* %call3.i27), !dbg !3060
  call void @exit(i32 -1) noreturn nounwind, !dbg !3061
  unreachable, !dbg !3061

_ZL8CudaTestPc.exit30:                            ; preds = %if.then25
  %42 = bitcast i8** %msg.addr.i21 to i8*, !dbg !3062
  %43 = bitcast i32* %e.i22 to i8*, !dbg !3062
  br label %if.end27, !dbg !3057

if.end27:                                         ; preds = %_ZL8CudaTestPc.exit30, %if.end19
  %nincoming = getelementptr inbounds %struct.Graph* %this1, i32 0, i32 4, !dbg !3063
  %44 = bitcast i32** %nincoming to i8**, !dbg !3063
  %nnodes28 = getelementptr inbounds %struct.Graph* %this1, i32 0, i32 1, !dbg !3063
  %45 = load i32* %nnodes28, align 4, !dbg !3063
  %conv29 = zext i32 %45 to i64, !dbg !3063
  %mul30 = mul i64 %conv29, 4, !dbg !3063
  %call31 = call i32 @cudaMalloc(i8** %44, i64 %mul30), !dbg !3063
  %cmp32 = icmp ne i32 %call31, 0, !dbg !3063
  br i1 %cmp32, label %if.then33, label %if.end35, !dbg !3063

if.then33:                                        ; preds = %if.end27
  %46 = bitcast i8** %msg.addr.i31 to i8*
  %47 = bitcast i32* %e.i32 to i8*
  store i8* getelementptr inbounds ([28 x i8]* @.str12, i32 0, i32 0), i8** %msg.addr.i31, align 8
  %call.i33 = call i32 @cudaThreadSynchronize(), !dbg !3064
  %call1.i34 = call i32 @cudaGetLastError(), !dbg !3066
  store i32 %call1.i34, i32* %e.i32, align 4, !dbg !3066
  %cmp.i35 = icmp ne i32 0, %call1.i34, !dbg !3066
  br i1 %cmp.i35, label %if.then.i39, label %_ZL8CudaTestPc.exit40, !dbg !3066

if.then.i39:                                      ; preds = %if.then33
  %48 = load %struct._IO_FILE** @stderr, align 8, !dbg !3067
  %49 = load i8** %msg.addr.i31, align 8, !dbg !3067
  %50 = load i32* %e.i32, align 4, !dbg !3067
  %call2.i36 = call i32 (%struct._IO_FILE*, i8*, ...)* @fprintf(%struct._IO_FILE* %48, i8* getelementptr inbounds ([8 x i8]* @.str97, i32 0, i32 0), i8* %49, i32 %50), !dbg !3067
  %51 = load %struct._IO_FILE** @stderr, align 8, !dbg !3068
  %52 = load i32* %e.i32, align 4, !dbg !3068
  %call3.i37 = call i8* @cudaGetErrorString(i32 %52), !dbg !3068
  %call4.i38 = call i32 (%struct._IO_FILE*, i8*, ...)* @fprintf(%struct._IO_FILE* %51, i8* getelementptr inbounds ([4 x i8]* @.str98, i32 0, i32 0), i8* %call3.i37), !dbg !3068
  call void @exit(i32 -1) noreturn nounwind, !dbg !3069
  unreachable, !dbg !3069

_ZL8CudaTestPc.exit40:                            ; preds = %if.then33
  %53 = bitcast i8** %msg.addr.i31 to i8*, !dbg !3070
  %54 = bitcast i32* %e.i32 to i8*, !dbg !3070
  br label %if.end35, !dbg !3065

if.end35:                                         ; preds = %_ZL8CudaTestPc.exit40, %if.end27
  %srcsrc = getelementptr inbounds %struct.Graph* %this1, i32 0, i32 5, !dbg !3071
  %55 = bitcast i32** %srcsrc to i8**, !dbg !3071
  %nnodes36 = getelementptr inbounds %struct.Graph* %this1, i32 0, i32 1, !dbg !3071
  %56 = load i32* %nnodes36, align 4, !dbg !3071
  %conv37 = zext i32 %56 to i64, !dbg !3071
  %mul38 = mul i64 %conv37, 4, !dbg !3071
  %call39 = call i32 @cudaMalloc(i8** %55, i64 %mul38), !dbg !3071
  %cmp40 = icmp ne i32 %call39, 0, !dbg !3071
  br i1 %cmp40, label %if.then41, label %if.end43, !dbg !3071

if.then41:                                        ; preds = %if.end35
  %57 = bitcast i8** %msg.addr.i41 to i8*
  %58 = bitcast i32* %e.i42 to i8*
  store i8* getelementptr inbounds ([25 x i8]* @.str13, i32 0, i32 0), i8** %msg.addr.i41, align 8
  %call.i43 = call i32 @cudaThreadSynchronize(), !dbg !3072
  %call1.i44 = call i32 @cudaGetLastError(), !dbg !3074
  store i32 %call1.i44, i32* %e.i42, align 4, !dbg !3074
  %cmp.i45 = icmp ne i32 0, %call1.i44, !dbg !3074
  br i1 %cmp.i45, label %if.then.i49, label %_ZL8CudaTestPc.exit50, !dbg !3074

if.then.i49:                                      ; preds = %if.then41
  %59 = load %struct._IO_FILE** @stderr, align 8, !dbg !3075
  %60 = load i8** %msg.addr.i41, align 8, !dbg !3075
  %61 = load i32* %e.i42, align 4, !dbg !3075
  %call2.i46 = call i32 (%struct._IO_FILE*, i8*, ...)* @fprintf(%struct._IO_FILE* %59, i8* getelementptr inbounds ([8 x i8]* @.str97, i32 0, i32 0), i8* %60, i32 %61), !dbg !3075
  %62 = load %struct._IO_FILE** @stderr, align 8, !dbg !3076
  %63 = load i32* %e.i42, align 4, !dbg !3076
  %call3.i47 = call i8* @cudaGetErrorString(i32 %63), !dbg !3076
  %call4.i48 = call i32 (%struct._IO_FILE*, i8*, ...)* @fprintf(%struct._IO_FILE* %62, i8* getelementptr inbounds ([4 x i8]* @.str98, i32 0, i32 0), i8* %call3.i47), !dbg !3076
  call void @exit(i32 -1) noreturn nounwind, !dbg !3077
  unreachable, !dbg !3077

_ZL8CudaTestPc.exit50:                            ; preds = %if.then41
  %64 = bitcast i8** %msg.addr.i41 to i8*, !dbg !3078
  %65 = bitcast i32* %e.i42 to i8*, !dbg !3078
  br label %if.end43, !dbg !3073

if.end43:                                         ; preds = %_ZL8CudaTestPc.exit50, %if.end35
  %maxOutDegree = getelementptr inbounds %struct.Graph* %this1, i32 0, i32 11, !dbg !3079
  %66 = bitcast i32** %maxOutDegree to i8**, !dbg !3079
  %call44 = call i32 @cudaMalloc(i8** %66, i64 4), !dbg !3079
  %cmp45 = icmp ne i32 %call44, 0, !dbg !3079
  br i1 %cmp45, label %if.then46, label %if.end48, !dbg !3079

if.then46:                                        ; preds = %if.end43
  %67 = bitcast i8** %msg.addr.i51 to i8*
  %68 = bitcast i32* %e.i52 to i8*
  store i8* getelementptr inbounds ([31 x i8]* @.str14, i32 0, i32 0), i8** %msg.addr.i51, align 8
  %call.i53 = call i32 @cudaThreadSynchronize(), !dbg !3080
  %call1.i54 = call i32 @cudaGetLastError(), !dbg !3082
  store i32 %call1.i54, i32* %e.i52, align 4, !dbg !3082
  %cmp.i55 = icmp ne i32 0, %call1.i54, !dbg !3082
  br i1 %cmp.i55, label %if.then.i59, label %_ZL8CudaTestPc.exit60, !dbg !3082

if.then.i59:                                      ; preds = %if.then46
  %69 = load %struct._IO_FILE** @stderr, align 8, !dbg !3083
  %70 = load i8** %msg.addr.i51, align 8, !dbg !3083
  %71 = load i32* %e.i52, align 4, !dbg !3083
  %call2.i56 = call i32 (%struct._IO_FILE*, i8*, ...)* @fprintf(%struct._IO_FILE* %69, i8* getelementptr inbounds ([8 x i8]* @.str97, i32 0, i32 0), i8* %70, i32 %71), !dbg !3083
  %72 = load %struct._IO_FILE** @stderr, align 8, !dbg !3084
  %73 = load i32* %e.i52, align 4, !dbg !3084
  %call3.i57 = call i8* @cudaGetErrorString(i32 %73), !dbg !3084
  %call4.i58 = call i32 (%struct._IO_FILE*, i8*, ...)* @fprintf(%struct._IO_FILE* %72, i8* getelementptr inbounds ([4 x i8]* @.str98, i32 0, i32 0), i8* %call3.i57), !dbg !3084
  call void @exit(i32 -1) noreturn nounwind, !dbg !3085
  unreachable, !dbg !3085

_ZL8CudaTestPc.exit60:                            ; preds = %if.then46
  %74 = bitcast i8** %msg.addr.i51 to i8*, !dbg !3086
  %75 = bitcast i32* %e.i52 to i8*, !dbg !3086
  br label %if.end48, !dbg !3081

if.end48:                                         ; preds = %_ZL8CudaTestPc.exit60, %if.end43
  %maxInDegree = getelementptr inbounds %struct.Graph* %this1, i32 0, i32 12, !dbg !3087
  %76 = bitcast i32** %maxInDegree to i8**, !dbg !3087
  %call49 = call i32 @cudaMalloc(i8** %76, i64 4), !dbg !3087
  %cmp50 = icmp ne i32 %call49, 0, !dbg !3087
  br i1 %cmp50, label %if.then51, label %if.end53, !dbg !3087

if.then51:                                        ; preds = %if.end48
  %77 = bitcast i8** %msg.addr.i61 to i8*
  %78 = bitcast i32* %e.i62 to i8*
  store i8* getelementptr inbounds ([30 x i8]* @.str15, i32 0, i32 0), i8** %msg.addr.i61, align 8
  %call.i63 = call i32 @cudaThreadSynchronize(), !dbg !3088
  %call1.i64 = call i32 @cudaGetLastError(), !dbg !3090
  store i32 %call1.i64, i32* %e.i62, align 4, !dbg !3090
  %cmp.i65 = icmp ne i32 0, %call1.i64, !dbg !3090
  br i1 %cmp.i65, label %if.then.i69, label %_ZL8CudaTestPc.exit70, !dbg !3090

if.then.i69:                                      ; preds = %if.then51
  %79 = load %struct._IO_FILE** @stderr, align 8, !dbg !3091
  %80 = load i8** %msg.addr.i61, align 8, !dbg !3091
  %81 = load i32* %e.i62, align 4, !dbg !3091
  %call2.i66 = call i32 (%struct._IO_FILE*, i8*, ...)* @fprintf(%struct._IO_FILE* %79, i8* getelementptr inbounds ([8 x i8]* @.str97, i32 0, i32 0), i8* %80, i32 %81), !dbg !3091
  %82 = load %struct._IO_FILE** @stderr, align 8, !dbg !3092
  %83 = load i32* %e.i62, align 4, !dbg !3092
  %call3.i67 = call i8* @cudaGetErrorString(i32 %83), !dbg !3092
  %call4.i68 = call i32 (%struct._IO_FILE*, i8*, ...)* @fprintf(%struct._IO_FILE* %82, i8* getelementptr inbounds ([4 x i8]* @.str98, i32 0, i32 0), i8* %call3.i67), !dbg !3092
  call void @exit(i32 -1) noreturn nounwind, !dbg !3093
  unreachable, !dbg !3093

_ZL8CudaTestPc.exit70:                            ; preds = %if.then51
  %84 = bitcast i8** %msg.addr.i61 to i8*, !dbg !3094
  %85 = bitcast i32* %e.i62 to i8*, !dbg !3094
  br label %if.end53, !dbg !3089

if.end53:                                         ; preds = %_ZL8CudaTestPc.exit70, %if.end48
  %memory = getelementptr inbounds %struct.Graph* %this1, i32 0, i32 0, !dbg !3095
  store i32 2, i32* %memory, align 4, !dbg !3095
  ret i32 0, !dbg !3096
}

define i32 @_ZN5Graph13deallocOnHostEv(%struct.Graph* %this) nounwind uwtable align 2 {
entry:
  %this.addr = alloca %struct.Graph*, align 8
  store %struct.Graph* %this, %struct.Graph** %this.addr, align 8
  %this1 = load %struct.Graph** %this.addr
  %noutgoing = getelementptr inbounds %struct.Graph* %this1, i32 0, i32 3, !dbg !3097
  %0 = load i32** %noutgoing, align 8, !dbg !3097
  %1 = bitcast i32* %0 to i8*, !dbg !3097
  call void @free(i8* %1) nounwind, !dbg !3097
  %nincoming = getelementptr inbounds %struct.Graph* %this1, i32 0, i32 4, !dbg !3099
  %2 = load i32** %nincoming, align 8, !dbg !3099
  %3 = bitcast i32* %2 to i8*, !dbg !3099
  call void @free(i8* %3) nounwind, !dbg !3099
  %srcsrc = getelementptr inbounds %struct.Graph* %this1, i32 0, i32 5, !dbg !3100
  %4 = load i32** %srcsrc, align 8, !dbg !3100
  %5 = bitcast i32* %4 to i8*, !dbg !3100
  call void @free(i8* %5) nounwind, !dbg !3100
  %psrc = getelementptr inbounds %struct.Graph* %this1, i32 0, i32 6, !dbg !3101
  %6 = load i32** %psrc, align 8, !dbg !3101
  %7 = bitcast i32* %6 to i8*, !dbg !3101
  call void @free(i8* %7) nounwind, !dbg !3101
  %edgessrcdst = getelementptr inbounds %struct.Graph* %this1, i32 0, i32 7, !dbg !3102
  %8 = load i32** %edgessrcdst, align 8, !dbg !3102
  %9 = bitcast i32* %8 to i8*, !dbg !3102
  call void @free(i8* %9) nounwind, !dbg !3102
  %edgessrcwt = getelementptr inbounds %struct.Graph* %this1, i32 0, i32 8, !dbg !3103
  %10 = load i32** %edgessrcwt, align 8, !dbg !3103
  %11 = bitcast i32* %10 to i8*, !dbg !3103
  call void @free(i8* %11) nounwind, !dbg !3103
  %maxOutDegree = getelementptr inbounds %struct.Graph* %this1, i32 0, i32 11, !dbg !3104
  %12 = load i32** %maxOutDegree, align 8, !dbg !3104
  %13 = bitcast i32* %12 to i8*, !dbg !3104
  call void @free(i8* %13) nounwind, !dbg !3104
  %maxInDegree = getelementptr inbounds %struct.Graph* %this1, i32 0, i32 12, !dbg !3105
  %14 = load i32** %maxInDegree, align 8, !dbg !3105
  %15 = bitcast i32* %14 to i8*, !dbg !3105
  call void @free(i8* %15) nounwind, !dbg !3105
  ret i32 0, !dbg !3106
}

declare void @free(i8*) nounwind

define i32 @_ZN5Graph15deallocOnDeviceEv(%struct.Graph* %this) uwtable align 2 {
entry:
  %this.addr = alloca %struct.Graph*, align 8
  store %struct.Graph* %this, %struct.Graph** %this.addr, align 8
  %this1 = load %struct.Graph** %this.addr
  %noutgoing = getelementptr inbounds %struct.Graph* %this1, i32 0, i32 3, !dbg !3107
  %0 = load i32** %noutgoing, align 8, !dbg !3107
  %1 = bitcast i32* %0 to i8*, !dbg !3107
  %call = call i32 @cudaFree(i8* %1), !dbg !3107
  %nincoming = getelementptr inbounds %struct.Graph* %this1, i32 0, i32 4, !dbg !3109
  %2 = load i32** %nincoming, align 8, !dbg !3109
  %3 = bitcast i32* %2 to i8*, !dbg !3109
  %call2 = call i32 @cudaFree(i8* %3), !dbg !3109
  %srcsrc = getelementptr inbounds %struct.Graph* %this1, i32 0, i32 5, !dbg !3110
  %4 = load i32** %srcsrc, align 8, !dbg !3110
  %5 = bitcast i32* %4 to i8*, !dbg !3110
  %call3 = call i32 @cudaFree(i8* %5), !dbg !3110
  %psrc = getelementptr inbounds %struct.Graph* %this1, i32 0, i32 6, !dbg !3111
  %6 = load i32** %psrc, align 8, !dbg !3111
  %7 = bitcast i32* %6 to i8*, !dbg !3111
  %call4 = call i32 @cudaFree(i8* %7), !dbg !3111
  %edgessrcdst = getelementptr inbounds %struct.Graph* %this1, i32 0, i32 7, !dbg !3112
  %8 = load i32** %edgessrcdst, align 8, !dbg !3112
  %9 = bitcast i32* %8 to i8*, !dbg !3112
  %call5 = call i32 @cudaFree(i8* %9), !dbg !3112
  %edgessrcwt = getelementptr inbounds %struct.Graph* %this1, i32 0, i32 8, !dbg !3113
  %10 = load i32** %edgessrcwt, align 8, !dbg !3113
  %11 = bitcast i32* %10 to i8*, !dbg !3113
  %call6 = call i32 @cudaFree(i8* %11), !dbg !3113
  %maxOutDegree = getelementptr inbounds %struct.Graph* %this1, i32 0, i32 11, !dbg !3114
  %12 = load i32** %maxOutDegree, align 8, !dbg !3114
  %13 = bitcast i32* %12 to i8*, !dbg !3114
  %call7 = call i32 @cudaFree(i8* %13), !dbg !3114
  %maxInDegree = getelementptr inbounds %struct.Graph* %this1, i32 0, i32 12, !dbg !3115
  %14 = load i32** %maxInDegree, align 8, !dbg !3115
  %15 = bitcast i32* %14 to i8*, !dbg !3115
  %call8 = call i32 @cudaFree(i8* %15), !dbg !3115
  ret i32 0, !dbg !3116
}

define i32 @_ZN5Graph7deallocEv(%struct.Graph* %this) uwtable align 2 {
entry:
  %this.addr.i1 = alloca %struct.Graph*, align 8
  %this.addr.i = alloca %struct.Graph*, align 8
  %this.addr = alloca %struct.Graph*, align 8
  store %struct.Graph* %this, %struct.Graph** %this.addr, align 8
  %this1 = load %struct.Graph** %this.addr
  %memory = getelementptr inbounds %struct.Graph* %this1, i32 0, i32 0, !dbg !3117
  %0 = load i32* %memory, align 4, !dbg !3117
  switch i32 %0, label %sw.epilog [
    i32 1, label %sw.bb
    i32 2, label %sw.bb3
  ], !dbg !3117

sw.bb:                                            ; preds = %entry
  %call = call i32 (i8*, ...)* @printf(i8* getelementptr inbounds ([18 x i8]* @.str16, i32 0, i32 0)), !dbg !3119
  %1 = bitcast %struct.Graph** %this.addr.i to i8*
  store %struct.Graph* %this1, %struct.Graph** %this.addr.i, align 8
  %this1.i = load %struct.Graph** %this.addr.i
  %noutgoing.i = getelementptr inbounds %struct.Graph* %this1.i, i32 0, i32 3, !dbg !3121
  %2 = load i32** %noutgoing.i, align 8, !dbg !3121
  %3 = bitcast i32* %2 to i8*, !dbg !3121
  call void @free(i8* %3) nounwind, !dbg !3121
  %nincoming.i = getelementptr inbounds %struct.Graph* %this1.i, i32 0, i32 4, !dbg !3123
  %4 = load i32** %nincoming.i, align 8, !dbg !3123
  %5 = bitcast i32* %4 to i8*, !dbg !3123
  call void @free(i8* %5) nounwind, !dbg !3123
  %srcsrc.i = getelementptr inbounds %struct.Graph* %this1.i, i32 0, i32 5, !dbg !3124
  %6 = load i32** %srcsrc.i, align 8, !dbg !3124
  %7 = bitcast i32* %6 to i8*, !dbg !3124
  call void @free(i8* %7) nounwind, !dbg !3124
  %psrc.i = getelementptr inbounds %struct.Graph* %this1.i, i32 0, i32 6, !dbg !3125
  %8 = load i32** %psrc.i, align 8, !dbg !3125
  %9 = bitcast i32* %8 to i8*, !dbg !3125
  call void @free(i8* %9) nounwind, !dbg !3125
  %edgessrcdst.i = getelementptr inbounds %struct.Graph* %this1.i, i32 0, i32 7, !dbg !3126
  %10 = load i32** %edgessrcdst.i, align 8, !dbg !3126
  %11 = bitcast i32* %10 to i8*, !dbg !3126
  call void @free(i8* %11) nounwind, !dbg !3126
  %edgessrcwt.i = getelementptr inbounds %struct.Graph* %this1.i, i32 0, i32 8, !dbg !3127
  %12 = load i32** %edgessrcwt.i, align 8, !dbg !3127
  %13 = bitcast i32* %12 to i8*, !dbg !3127
  call void @free(i8* %13) nounwind, !dbg !3127
  %maxOutDegree.i = getelementptr inbounds %struct.Graph* %this1.i, i32 0, i32 11, !dbg !3128
  %14 = load i32** %maxOutDegree.i, align 8, !dbg !3128
  %15 = bitcast i32* %14 to i8*, !dbg !3128
  call void @free(i8* %15) nounwind, !dbg !3128
  %maxInDegree.i = getelementptr inbounds %struct.Graph* %this1.i, i32 0, i32 12, !dbg !3129
  %16 = load i32** %maxInDegree.i, align 8, !dbg !3129
  %17 = bitcast i32* %16 to i8*, !dbg !3129
  call void @free(i8* %17) nounwind, !dbg !3129
  %18 = bitcast %struct.Graph** %this.addr.i to i8*, !dbg !3130
  br label %sw.epilog, !dbg !3131

sw.bb3:                                           ; preds = %entry
  %call4 = call i32 (i8*, ...)* @printf(i8* getelementptr inbounds ([20 x i8]* @.str17, i32 0, i32 0)), !dbg !3132
  %19 = bitcast %struct.Graph** %this.addr.i1 to i8*
  store %struct.Graph* %this1, %struct.Graph** %this.addr.i1, align 8
  %this1.i2 = load %struct.Graph** %this.addr.i1
  %noutgoing.i3 = getelementptr inbounds %struct.Graph* %this1.i2, i32 0, i32 3, !dbg !3133
  %20 = load i32** %noutgoing.i3, align 8, !dbg !3133
  %21 = bitcast i32* %20 to i8*, !dbg !3133
  %call.i = call i32 @cudaFree(i8* %21), !dbg !3133
  %nincoming.i4 = getelementptr inbounds %struct.Graph* %this1.i2, i32 0, i32 4, !dbg !3135
  %22 = load i32** %nincoming.i4, align 8, !dbg !3135
  %23 = bitcast i32* %22 to i8*, !dbg !3135
  %call2.i = call i32 @cudaFree(i8* %23), !dbg !3135
  %srcsrc.i5 = getelementptr inbounds %struct.Graph* %this1.i2, i32 0, i32 5, !dbg !3136
  %24 = load i32** %srcsrc.i5, align 8, !dbg !3136
  %25 = bitcast i32* %24 to i8*, !dbg !3136
  %call3.i = call i32 @cudaFree(i8* %25), !dbg !3136
  %psrc.i6 = getelementptr inbounds %struct.Graph* %this1.i2, i32 0, i32 6, !dbg !3137
  %26 = load i32** %psrc.i6, align 8, !dbg !3137
  %27 = bitcast i32* %26 to i8*, !dbg !3137
  %call4.i = call i32 @cudaFree(i8* %27), !dbg !3137
  %edgessrcdst.i7 = getelementptr inbounds %struct.Graph* %this1.i2, i32 0, i32 7, !dbg !3138
  %28 = load i32** %edgessrcdst.i7, align 8, !dbg !3138
  %29 = bitcast i32* %28 to i8*, !dbg !3138
  %call5.i = call i32 @cudaFree(i8* %29), !dbg !3138
  %edgessrcwt.i8 = getelementptr inbounds %struct.Graph* %this1.i2, i32 0, i32 8, !dbg !3139
  %30 = load i32** %edgessrcwt.i8, align 8, !dbg !3139
  %31 = bitcast i32* %30 to i8*, !dbg !3139
  %call6.i = call i32 @cudaFree(i8* %31), !dbg !3139
  %maxOutDegree.i9 = getelementptr inbounds %struct.Graph* %this1.i2, i32 0, i32 11, !dbg !3140
  %32 = load i32** %maxOutDegree.i9, align 8, !dbg !3140
  %33 = bitcast i32* %32 to i8*, !dbg !3140
  %call7.i = call i32 @cudaFree(i8* %33), !dbg !3140
  %maxInDegree.i10 = getelementptr inbounds %struct.Graph* %this1.i2, i32 0, i32 12, !dbg !3141
  %34 = load i32** %maxInDegree.i10, align 8, !dbg !3141
  %35 = bitcast i32* %34 to i8*, !dbg !3141
  %call8.i = call i32 @cudaFree(i8* %35), !dbg !3141
  %36 = bitcast %struct.Graph** %this.addr.i1 to i8*, !dbg !3142
  br label %sw.epilog, !dbg !3143

sw.epilog:                                        ; preds = %sw.bb3, %sw.bb, %entry
  ret i32 0, !dbg !3144
}

define void @_ZN5GraphC2Ev(%struct.Graph* %this) unnamed_addr nounwind uwtable align 2 {
entry:
  %this.addr.i = alloca %struct.Graph*, align 8
  %this.addr = alloca %struct.Graph*, align 8
  store %struct.Graph* %this, %struct.Graph** %this.addr, align 8
  %this1 = load %struct.Graph** %this.addr
  %0 = bitcast %struct.Graph** %this.addr.i to i8*
  store %struct.Graph* %this1, %struct.Graph** %this.addr.i, align 8
  %this1.i = load %struct.Graph** %this.addr.i
  %edgessrcdst.i = getelementptr inbounds %struct.Graph* %this1.i, i32 0, i32 7, !dbg !3145
  store i32* null, i32** %edgessrcdst.i, align 8, !dbg !3145
  %psrc.i = getelementptr inbounds %struct.Graph* %this1.i, i32 0, i32 6, !dbg !3145
  store i32* null, i32** %psrc.i, align 8, !dbg !3145
  %srcsrc.i = getelementptr inbounds %struct.Graph* %this1.i, i32 0, i32 5, !dbg !3145
  store i32* null, i32** %srcsrc.i, align 8, !dbg !3145
  %nincoming.i = getelementptr inbounds %struct.Graph* %this1.i, i32 0, i32 4, !dbg !3145
  store i32* null, i32** %nincoming.i, align 8, !dbg !3145
  %noutgoing.i = getelementptr inbounds %struct.Graph* %this1.i, i32 0, i32 3, !dbg !3145
  store i32* null, i32** %noutgoing.i, align 8, !dbg !3145
  %edgessrcwt.i = getelementptr inbounds %struct.Graph* %this1.i, i32 0, i32 8, !dbg !3148
  store i32* null, i32** %edgessrcwt.i, align 8, !dbg !3148
  %source.i = getelementptr inbounds %struct.Graph* %this1.i, i32 0, i32 10, !dbg !3149
  store i32 0, i32* %source.i, align 4, !dbg !3149
  %nedges.i = getelementptr inbounds %struct.Graph* %this1.i, i32 0, i32 2, !dbg !3150
  store i32 0, i32* %nedges.i, align 4, !dbg !3150
  %nnodes.i = getelementptr inbounds %struct.Graph* %this1.i, i32 0, i32 1, !dbg !3150
  store i32 0, i32* %nnodes.i, align 4, !dbg !3150
  %memory.i = getelementptr inbounds %struct.Graph* %this1.i, i32 0, i32 0, !dbg !3151
  store i32 0, i32* %memory.i, align 4, !dbg !3151
  %maxInDegree.i = getelementptr inbounds %struct.Graph* %this1.i, i32 0, i32 12, !dbg !3152
  store i32* null, i32** %maxInDegree.i, align 8, !dbg !3152
  %maxOutDegree.i = getelementptr inbounds %struct.Graph* %this1.i, i32 0, i32 11, !dbg !3152
  store i32* null, i32** %maxOutDegree.i, align 8, !dbg !3152
  %diameter.i = getelementptr inbounds %struct.Graph* %this1.i, i32 0, i32 13, !dbg !3153
  store i32 0, i32* %diameter.i, align 4, !dbg !3153
  %foundStats.i = getelementptr inbounds %struct.Graph* %this1.i, i32 0, i32 14, !dbg !3154
  store i8 0, i8* %foundStats.i, align 1, !dbg !3154
  %1 = bitcast %struct.Graph** %this.addr.i to i8*, !dbg !3155
  ret void, !dbg !3156
}

define void @_ZN5GraphD2Ev(%struct.Graph* %this) unnamed_addr nounwind uwtable align 2 {
entry:
  %this.addr = alloca %struct.Graph*, align 8
  store %struct.Graph* %this, %struct.Graph** %this.addr, align 8
  %this1 = load %struct.Graph** %this.addr
  ret void, !dbg !3157
}

define i32 @_ZN5Graph11optimizeoneEv(%struct.Graph* %this) nounwind uwtable align 2 {
entry:
  %this.addr = alloca %struct.Graph*, align 8
  %nvv = alloca i32, align 4
  %insertindex = alloca i32, align 4
  %ii = alloca i32, align 4
  %src = alloca i32, align 4
  %dstindex = alloca i32, align 4
  %degree = alloca i32, align 4
  %nee = alloca i32, align 4
  %ee = alloca i32, align 4
  %dst = alloca i32, align 4
  %dstentry = alloca i32, align 4
  %temp = alloca i32, align 4
  store %struct.Graph* %this, %struct.Graph** %this.addr, align 8
  %this1 = load %struct.Graph** %this.addr
  %nnodes = getelementptr inbounds %struct.Graph* %this1, i32 0, i32 1, !dbg !3159
  %0 = load i32* %nnodes, align 4, !dbg !3159
  store i32 %0, i32* %nvv, align 4, !dbg !3159
  store i32 1, i32* %insertindex, align 4, !dbg !3161
  store i32 0, i32* %ii, align 4, !dbg !3162
  br label %for.cond, !dbg !3162

for.cond:                                         ; preds = %for.inc55, %entry
  %1 = load i32* %ii, align 4, !dbg !3162
  %2 = load i32* %nvv, align 4, !dbg !3162
  %cmp = icmp ult i32 %1, %2, !dbg !3162
  br i1 %cmp, label %for.body, label %for.end57, !dbg !3162

for.body:                                         ; preds = %for.cond
  %3 = load i32* %ii, align 4, !dbg !3164
  %idxprom = zext i32 %3 to i64, !dbg !3164
  %srcsrc = getelementptr inbounds %struct.Graph* %this1, i32 0, i32 5, !dbg !3164
  %4 = load i32** %srcsrc, align 8, !dbg !3164
  %arrayidx = getelementptr inbounds i32* %4, i64 %idxprom, !dbg !3164
  %5 = load i32* %arrayidx, align 4, !dbg !3164
  store i32 %5, i32* %src, align 4, !dbg !3164
  %6 = load i32* %src, align 4, !dbg !3166
  %idxprom2 = zext i32 %6 to i64, !dbg !3166
  %psrc = getelementptr inbounds %struct.Graph* %this1, i32 0, i32 6, !dbg !3166
  %7 = load i32** %psrc, align 8, !dbg !3166
  %arrayidx3 = getelementptr inbounds i32* %7, i64 %idxprom2, !dbg !3166
  %8 = load i32* %arrayidx3, align 4, !dbg !3166
  store i32 %8, i32* %dstindex, align 4, !dbg !3166
  %9 = load i32* %src, align 4, !dbg !3167
  %idxprom4 = zext i32 %9 to i64, !dbg !3167
  %noutgoing = getelementptr inbounds %struct.Graph* %this1, i32 0, i32 3, !dbg !3167
  %10 = load i32** %noutgoing, align 8, !dbg !3167
  %arrayidx5 = getelementptr inbounds i32* %10, i64 %idxprom4, !dbg !3167
  %11 = load i32* %arrayidx5, align 4, !dbg !3167
  store i32 %11, i32* %degree, align 4, !dbg !3167
  %12 = load i32* %degree, align 4, !dbg !3168
  %tobool = icmp ne i32 %12, 0, !dbg !3168
  br i1 %tobool, label %land.lhs.true, label %for.inc55, !dbg !3168

land.lhs.true:                                    ; preds = %for.body
  %13 = load i32* %dstindex, align 4, !dbg !3168
  %idxprom6 = zext i32 %13 to i64, !dbg !3168
  %edgessrcdst = getelementptr inbounds %struct.Graph* %this1, i32 0, i32 7, !dbg !3168
  %14 = load i32** %edgessrcdst, align 8, !dbg !3168
  %arrayidx7 = getelementptr inbounds i32* %14, i64 %idxprom6, !dbg !3168
  %15 = load i32* %arrayidx7, align 4, !dbg !3168
  %idxprom8 = zext i32 %15 to i64, !dbg !3168
  %srcsrc9 = getelementptr inbounds %struct.Graph* %this1, i32 0, i32 5, !dbg !3168
  %16 = load i32** %srcsrc9, align 8, !dbg !3168
  %arrayidx10 = getelementptr inbounds i32* %16, i64 %idxprom8, !dbg !3168
  %17 = load i32* %arrayidx10, align 4, !dbg !3168
  %18 = load i32* %src, align 4, !dbg !3168
  %add = add i32 %18, 150, !dbg !3168
  %cmp11 = icmp ugt i32 %17, %add, !dbg !3168
  br i1 %cmp11, label %if.then, label %for.inc55, !dbg !3168

if.then:                                          ; preds = %land.lhs.true
  %19 = load i32* %degree, align 4, !dbg !3169
  store i32 %19, i32* %nee, align 4, !dbg !3169
  store i32 0, i32* %ee, align 4, !dbg !3171
  br label %for.cond12, !dbg !3171

for.cond12:                                       ; preds = %for.inc, %if.then
  %20 = load i32* %ee, align 4, !dbg !3171
  %21 = load i32* %nee, align 4, !dbg !3171
  %cmp13 = icmp ult i32 %20, %21, !dbg !3171
  br i1 %cmp13, label %for.body14, label %for.end, !dbg !3171

for.body14:                                       ; preds = %for.cond12
  %22 = load i32* %dstindex, align 4, !dbg !3173
  %23 = load i32* %ee, align 4, !dbg !3173
  %add15 = add i32 %22, %23, !dbg !3173
  %idxprom16 = zext i32 %add15 to i64, !dbg !3173
  %edgessrcdst17 = getelementptr inbounds %struct.Graph* %this1, i32 0, i32 7, !dbg !3173
  %24 = load i32** %edgessrcdst17, align 8, !dbg !3173
  %arrayidx18 = getelementptr inbounds i32* %24, i64 %idxprom16, !dbg !3173
  %25 = load i32* %arrayidx18, align 4, !dbg !3173
  store i32 %25, i32* %dst, align 4, !dbg !3173
  %26 = load i32* %dst, align 4, !dbg !3175
  %idxprom19 = zext i32 %26 to i64, !dbg !3175
  %srcsrc20 = getelementptr inbounds %struct.Graph* %this1, i32 0, i32 5, !dbg !3175
  %27 = load i32** %srcsrc20, align 8, !dbg !3175
  %arrayidx21 = getelementptr inbounds i32* %27, i64 %idxprom19, !dbg !3175
  %28 = load i32* %arrayidx21, align 4, !dbg !3175
  store i32 %28, i32* %dstentry, align 4, !dbg !3175
  %29 = load i32* %insertindex, align 4, !dbg !3176
  %idxprom22 = zext i32 %29 to i64, !dbg !3176
  %psrc23 = getelementptr inbounds %struct.Graph* %this1, i32 0, i32 6, !dbg !3176
  %30 = load i32** %psrc23, align 8, !dbg !3176
  %arrayidx24 = getelementptr inbounds i32* %30, i64 %idxprom22, !dbg !3176
  %31 = load i32* %arrayidx24, align 4, !dbg !3176
  store i32 %31, i32* %temp, align 4, !dbg !3176
  %32 = load i32* %dstentry, align 4, !dbg !3177
  %idxprom25 = zext i32 %32 to i64, !dbg !3177
  %psrc26 = getelementptr inbounds %struct.Graph* %this1, i32 0, i32 6, !dbg !3177
  %33 = load i32** %psrc26, align 8, !dbg !3177
  %arrayidx27 = getelementptr inbounds i32* %33, i64 %idxprom25, !dbg !3177
  %34 = load i32* %arrayidx27, align 4, !dbg !3177
  %35 = load i32* %insertindex, align 4, !dbg !3177
  %idxprom28 = zext i32 %35 to i64, !dbg !3177
  %psrc29 = getelementptr inbounds %struct.Graph* %this1, i32 0, i32 6, !dbg !3177
  %36 = load i32** %psrc29, align 8, !dbg !3177
  %arrayidx30 = getelementptr inbounds i32* %36, i64 %idxprom28, !dbg !3177
  store i32 %34, i32* %arrayidx30, align 4, !dbg !3177
  %37 = load i32* %temp, align 4, !dbg !3178
  %38 = load i32* %dstentry, align 4, !dbg !3178
  %idxprom31 = zext i32 %38 to i64, !dbg !3178
  %psrc32 = getelementptr inbounds %struct.Graph* %this1, i32 0, i32 6, !dbg !3178
  %39 = load i32** %psrc32, align 8, !dbg !3178
  %arrayidx33 = getelementptr inbounds i32* %39, i64 %idxprom31, !dbg !3178
  store i32 %37, i32* %arrayidx33, align 4, !dbg !3178
  %40 = load i32* %ii, align 4, !dbg !3179
  %idxprom34 = zext i32 %40 to i64, !dbg !3179
  %srcsrc35 = getelementptr inbounds %struct.Graph* %this1, i32 0, i32 5, !dbg !3179
  %41 = load i32** %srcsrc35, align 8, !dbg !3179
  %arrayidx36 = getelementptr inbounds i32* %41, i64 %idxprom34, !dbg !3179
  %42 = load i32* %arrayidx36, align 4, !dbg !3179
  store i32 %42, i32* %temp, align 4, !dbg !3179
  %43 = load i32* %dst, align 4, !dbg !3180
  %idxprom37 = zext i32 %43 to i64, !dbg !3180
  %srcsrc38 = getelementptr inbounds %struct.Graph* %this1, i32 0, i32 5, !dbg !3180
  %44 = load i32** %srcsrc38, align 8, !dbg !3180
  %arrayidx39 = getelementptr inbounds i32* %44, i64 %idxprom37, !dbg !3180
  %45 = load i32* %arrayidx39, align 4, !dbg !3180
  %46 = load i32* %ii, align 4, !dbg !3180
  %idxprom40 = zext i32 %46 to i64, !dbg !3180
  %srcsrc41 = getelementptr inbounds %struct.Graph* %this1, i32 0, i32 5, !dbg !3180
  %47 = load i32** %srcsrc41, align 8, !dbg !3180
  %arrayidx42 = getelementptr inbounds i32* %47, i64 %idxprom40, !dbg !3180
  store i32 %45, i32* %arrayidx42, align 4, !dbg !3180
  %48 = load i32* %temp, align 4, !dbg !3181
  %49 = load i32* %dst, align 4, !dbg !3181
  %idxprom43 = zext i32 %49 to i64, !dbg !3181
  %srcsrc44 = getelementptr inbounds %struct.Graph* %this1, i32 0, i32 5, !dbg !3181
  %50 = load i32** %srcsrc44, align 8, !dbg !3181
  %arrayidx45 = getelementptr inbounds i32* %50, i64 %idxprom43, !dbg !3181
  store i32 %48, i32* %arrayidx45, align 4, !dbg !3181
  %51 = load i32* %insertindex, align 4, !dbg !3182
  %inc = add i32 %51, 1, !dbg !3182
  store i32 %inc, i32* %insertindex, align 4, !dbg !3182
  %nnodes46 = getelementptr inbounds %struct.Graph* %this1, i32 0, i32 1, !dbg !3182
  %52 = load i32* %nnodes46, align 4, !dbg !3182
  %cmp47 = icmp uge i32 %inc, %52, !dbg !3182
  br i1 %cmp47, label %for.end, label %for.inc, !dbg !3182

for.inc:                                          ; preds = %for.body14
  %53 = load i32* %ee, align 4, !dbg !3171
  %inc49 = add i32 %53, 1, !dbg !3171
  store i32 %inc49, i32* %ee, align 4, !dbg !3171
  br label %for.cond12, !dbg !3171

for.end:                                          ; preds = %for.body14, %for.cond12
  %54 = load i32* %insertindex, align 4, !dbg !3183
  %nnodes50 = getelementptr inbounds %struct.Graph* %this1, i32 0, i32 1, !dbg !3183
  %55 = load i32* %nnodes50, align 4, !dbg !3183
  %cmp51 = icmp uge i32 %54, %55, !dbg !3183
  br i1 %cmp51, label %for.end57, label %for.inc55, !dbg !3183

for.inc55:                                        ; preds = %for.body, %land.lhs.true, %for.end
  %56 = load i32* %ii, align 4, !dbg !3162
  %inc56 = add i32 %56, 1, !dbg !3162
  store i32 %inc56, i32* %ii, align 4, !dbg !3162
  br label %for.cond, !dbg !3162

for.end57:                                        ; preds = %for.end, %for.cond
  ret i32 0, !dbg !3184
}

define i32 @_ZN5Graph11optimizetwoEv(%struct.Graph* %this) nounwind uwtable align 2 {
entry:
  %this.addr = alloca %struct.Graph*, align 8
  %nvv = alloca i32, align 4
  %firsthalfsmaller = alloca i8, align 1
  %temp = alloca i32, align 4
  %ii = alloca i32, align 4
  %one = alloca i32, align 4
  %two = alloca i32, align 4
  %degreeone = alloca i32, align 4
  %degreetwo = alloca i32, align 4
  store %struct.Graph* %this, %struct.Graph** %this.addr, align 8
  %this1 = load %struct.Graph** %this.addr
  %nnodes = getelementptr inbounds %struct.Graph* %this1, i32 0, i32 1, !dbg !3185
  %0 = load i32* %nnodes, align 4, !dbg !3185
  %int_cast_to_i64 = zext i32 2 to i64
  call void @klee_div_zero_check(i64 %int_cast_to_i64)
  %div = udiv i32 %0, 2, !dbg !3185
  store i32 %div, i32* %nvv, align 4, !dbg !3185
  store i8 1, i8* %firsthalfsmaller, align 1, !dbg !3187
  store i32 0, i32* %ii, align 4, !dbg !3188
  br label %for.cond, !dbg !3188

for.cond:                                         ; preds = %for.inc, %entry
  %1 = load i32* %ii, align 4, !dbg !3188
  %2 = load i32* %nvv, align 4, !dbg !3188
  %cmp = icmp ult i32 %1, %2, !dbg !3188
  br i1 %cmp, label %for.body, label %for.end, !dbg !3188

for.body:                                         ; preds = %for.cond
  %3 = load i32* %ii, align 4, !dbg !3190
  store i32 %3, i32* %one, align 4, !dbg !3190
  %4 = load i32* %nvv, align 4, !dbg !3192
  %5 = load i32* %ii, align 4, !dbg !3192
  %add = add i32 %4, %5, !dbg !3192
  store i32 %add, i32* %two, align 4, !dbg !3192
  %6 = load i32* %one, align 4, !dbg !3193
  %idxprom = zext i32 %6 to i64, !dbg !3193
  %noutgoing = getelementptr inbounds %struct.Graph* %this1, i32 0, i32 3, !dbg !3193
  %7 = load i32** %noutgoing, align 8, !dbg !3193
  %arrayidx = getelementptr inbounds i32* %7, i64 %idxprom, !dbg !3193
  %8 = load i32* %arrayidx, align 4, !dbg !3193
  store i32 %8, i32* %degreeone, align 4, !dbg !3193
  %9 = load i32* %two, align 4, !dbg !3194
  %idxprom2 = zext i32 %9 to i64, !dbg !3194
  %noutgoing3 = getelementptr inbounds %struct.Graph* %this1, i32 0, i32 3, !dbg !3194
  %10 = load i32** %noutgoing3, align 8, !dbg !3194
  %arrayidx4 = getelementptr inbounds i32* %10, i64 %idxprom2, !dbg !3194
  %11 = load i32* %arrayidx4, align 4, !dbg !3194
  store i32 %11, i32* %degreetwo, align 4, !dbg !3194
  %12 = load i32* %degreeone, align 4, !dbg !3195
  %13 = load i32* %degreetwo, align 4, !dbg !3195
  %cmp5 = icmp ugt i32 %12, %13, !dbg !3195
  br i1 %cmp5, label %land.lhs.true, label %lor.lhs.false, !dbg !3195

land.lhs.true:                                    ; preds = %for.body
  %14 = load i32* %degreeone, align 4, !dbg !3195
  %15 = load i32* %degreetwo, align 4, !dbg !3195
  %sub = sub i32 %14, %15, !dbg !3195
  %cmp6 = icmp ugt i32 %sub, 10, !dbg !3195
  br i1 %cmp6, label %land.lhs.true7, label %lor.lhs.false, !dbg !3195

land.lhs.true7:                                   ; preds = %land.lhs.true
  %16 = load i8* %firsthalfsmaller, align 1, !dbg !3195
  %tobool = trunc i8 %16 to i1, !dbg !3195
  br i1 %tobool, label %lor.lhs.false, label %if.then, !dbg !3195

lor.lhs.false:                                    ; preds = %land.lhs.true7, %land.lhs.true, %for.body
  %17 = load i32* %degreetwo, align 4, !dbg !3195
  %18 = load i32* %degreeone, align 4, !dbg !3195
  %cmp8 = icmp ugt i32 %17, %18, !dbg !3195
  br i1 %cmp8, label %land.lhs.true9, label %for.inc, !dbg !3195

land.lhs.true9:                                   ; preds = %lor.lhs.false
  %19 = load i32* %degreetwo, align 4, !dbg !3195
  %20 = load i32* %degreeone, align 4, !dbg !3195
  %sub10 = sub i32 %19, %20, !dbg !3195
  %cmp11 = icmp ugt i32 %sub10, 10, !dbg !3195
  br i1 %cmp11, label %land.lhs.true12, label %for.inc, !dbg !3195

land.lhs.true12:                                  ; preds = %land.lhs.true9
  %21 = load i8* %firsthalfsmaller, align 1, !dbg !3195
  %tobool13 = trunc i8 %21 to i1, !dbg !3195
  br i1 %tobool13, label %if.then, label %for.inc, !dbg !3195

if.then:                                          ; preds = %land.lhs.true12, %land.lhs.true7
  %22 = load i32* %one, align 4, !dbg !3196
  %idxprom14 = zext i32 %22 to i64, !dbg !3196
  %srcsrc = getelementptr inbounds %struct.Graph* %this1, i32 0, i32 5, !dbg !3196
  %23 = load i32** %srcsrc, align 8, !dbg !3196
  %arrayidx15 = getelementptr inbounds i32* %23, i64 %idxprom14, !dbg !3196
  %24 = load i32* %arrayidx15, align 4, !dbg !3196
  store i32 %24, i32* %temp, align 4, !dbg !3196
  %25 = load i32* %two, align 4, !dbg !3198
  %idxprom16 = zext i32 %25 to i64, !dbg !3198
  %srcsrc17 = getelementptr inbounds %struct.Graph* %this1, i32 0, i32 5, !dbg !3198
  %26 = load i32** %srcsrc17, align 8, !dbg !3198
  %arrayidx18 = getelementptr inbounds i32* %26, i64 %idxprom16, !dbg !3198
  %27 = load i32* %arrayidx18, align 4, !dbg !3198
  %28 = load i32* %one, align 4, !dbg !3198
  %idxprom19 = zext i32 %28 to i64, !dbg !3198
  %srcsrc20 = getelementptr inbounds %struct.Graph* %this1, i32 0, i32 5, !dbg !3198
  %29 = load i32** %srcsrc20, align 8, !dbg !3198
  %arrayidx21 = getelementptr inbounds i32* %29, i64 %idxprom19, !dbg !3198
  store i32 %27, i32* %arrayidx21, align 4, !dbg !3198
  %30 = load i32* %temp, align 4, !dbg !3199
  %31 = load i32* %two, align 4, !dbg !3199
  %idxprom22 = zext i32 %31 to i64, !dbg !3199
  %srcsrc23 = getelementptr inbounds %struct.Graph* %this1, i32 0, i32 5, !dbg !3199
  %32 = load i32** %srcsrc23, align 8, !dbg !3199
  %arrayidx24 = getelementptr inbounds i32* %32, i64 %idxprom22, !dbg !3199
  store i32 %30, i32* %arrayidx24, align 4, !dbg !3199
  %33 = load i32* %one, align 4, !dbg !3200
  %idxprom25 = zext i32 %33 to i64, !dbg !3200
  %psrc = getelementptr inbounds %struct.Graph* %this1, i32 0, i32 6, !dbg !3200
  %34 = load i32** %psrc, align 8, !dbg !3200
  %arrayidx26 = getelementptr inbounds i32* %34, i64 %idxprom25, !dbg !3200
  %35 = load i32* %arrayidx26, align 4, !dbg !3200
  store i32 %35, i32* %temp, align 4, !dbg !3200
  %36 = load i32* %two, align 4, !dbg !3201
  %idxprom27 = zext i32 %36 to i64, !dbg !3201
  %psrc28 = getelementptr inbounds %struct.Graph* %this1, i32 0, i32 6, !dbg !3201
  %37 = load i32** %psrc28, align 8, !dbg !3201
  %arrayidx29 = getelementptr inbounds i32* %37, i64 %idxprom27, !dbg !3201
  %38 = load i32* %arrayidx29, align 4, !dbg !3201
  %39 = load i32* %one, align 4, !dbg !3201
  %idxprom30 = zext i32 %39 to i64, !dbg !3201
  %psrc31 = getelementptr inbounds %struct.Graph* %this1, i32 0, i32 6, !dbg !3201
  %40 = load i32** %psrc31, align 8, !dbg !3201
  %arrayidx32 = getelementptr inbounds i32* %40, i64 %idxprom30, !dbg !3201
  store i32 %38, i32* %arrayidx32, align 4, !dbg !3201
  %41 = load i32* %temp, align 4, !dbg !3202
  %42 = load i32* %two, align 4, !dbg !3202
  %idxprom33 = zext i32 %42 to i64, !dbg !3202
  %psrc34 = getelementptr inbounds %struct.Graph* %this1, i32 0, i32 6, !dbg !3202
  %43 = load i32** %psrc34, align 8, !dbg !3202
  %arrayidx35 = getelementptr inbounds i32* %43, i64 %idxprom33, !dbg !3202
  store i32 %41, i32* %arrayidx35, align 4, !dbg !3202
  %44 = load i8* %firsthalfsmaller, align 1, !dbg !3203
  %tobool36 = trunc i8 %44 to i1, !dbg !3203
  %lnot = xor i1 %tobool36, true, !dbg !3203
  %frombool = zext i1 %lnot to i8, !dbg !3203
  store i8 %frombool, i8* %firsthalfsmaller, align 1, !dbg !3203
  br label %for.inc, !dbg !3204

for.inc:                                          ; preds = %lor.lhs.false, %land.lhs.true9, %land.lhs.true12, %if.then
  %45 = load i32* %ii, align 4, !dbg !3188
  %inc = add i32 %45, 1, !dbg !3188
  store i32 %inc, i32* %ii, align 4, !dbg !3188
  br label %for.cond, !dbg !3188

for.end:                                          ; preds = %for.cond
  ret i32 0, !dbg !3205
}

define i32 @_ZN5Graph8optimizeEv(%struct.Graph* %this) nounwind uwtable align 2 {
entry:
  %this.addr.i1 = alloca %struct.Graph*, align 8
  %nvv.i2 = alloca i32, align 4
  %firsthalfsmaller.i = alloca i8, align 1
  %temp.i3 = alloca i32, align 4
  %ii.i4 = alloca i32, align 4
  %one.i = alloca i32, align 4
  %two.i = alloca i32, align 4
  %degreeone.i = alloca i32, align 4
  %degreetwo.i = alloca i32, align 4
  %this.addr.i = alloca %struct.Graph*, align 8
  %nvv.i = alloca i32, align 4
  %insertindex.i = alloca i32, align 4
  %ii.i = alloca i32, align 4
  %src.i = alloca i32, align 4
  %dstindex.i = alloca i32, align 4
  %degree.i = alloca i32, align 4
  %nee.i = alloca i32, align 4
  %ee.i = alloca i32, align 4
  %dst.i = alloca i32, align 4
  %dstentry.i = alloca i32, align 4
  %temp.i = alloca i32, align 4
  %this.addr = alloca %struct.Graph*, align 8
  store %struct.Graph* %this, %struct.Graph** %this.addr, align 8
  %this1 = load %struct.Graph** %this.addr
  %0 = bitcast %struct.Graph** %this.addr.i to i8*
  %1 = bitcast i32* %nvv.i to i8*
  %2 = bitcast i32* %insertindex.i to i8*
  %3 = bitcast i32* %ii.i to i8*
  %4 = bitcast i32* %src.i to i8*
  %5 = bitcast i32* %dstindex.i to i8*
  %6 = bitcast i32* %degree.i to i8*
  %7 = bitcast i32* %nee.i to i8*
  %8 = bitcast i32* %ee.i to i8*
  %9 = bitcast i32* %dst.i to i8*
  %10 = bitcast i32* %dstentry.i to i8*
  %11 = bitcast i32* %temp.i to i8*
  store %struct.Graph* %this1, %struct.Graph** %this.addr.i, align 8
  %this1.i = load %struct.Graph** %this.addr.i
  %nnodes.i = getelementptr inbounds %struct.Graph* %this1.i, i32 0, i32 1, !dbg !3206
  %12 = load i32* %nnodes.i, align 4, !dbg !3206
  store i32 %12, i32* %nvv.i, align 4, !dbg !3206
  store i32 1, i32* %insertindex.i, align 4, !dbg !3209
  store i32 0, i32* %ii.i, align 4, !dbg !3210
  br label %for.cond.i, !dbg !3210

for.cond.i:                                       ; preds = %if.end54.i, %entry
  %13 = load i32* %ii.i, align 4, !dbg !3210
  %14 = load i32* %nvv.i, align 4, !dbg !3210
  %cmp.i = icmp ult i32 %13, %14, !dbg !3210
  br i1 %cmp.i, label %for.body.i, label %_ZN5Graph11optimizeoneEv.exit, !dbg !3210

for.body.i:                                       ; preds = %for.cond.i
  %15 = load i32* %ii.i, align 4, !dbg !3211
  %idxprom.i = zext i32 %15 to i64, !dbg !3211
  %srcsrc.i = getelementptr inbounds %struct.Graph* %this1.i, i32 0, i32 5, !dbg !3211
  %16 = load i32** %srcsrc.i, align 8, !dbg !3211
  %arrayidx.i = getelementptr inbounds i32* %16, i64 %idxprom.i, !dbg !3211
  %17 = load i32* %arrayidx.i, align 4, !dbg !3211
  store i32 %17, i32* %src.i, align 4, !dbg !3211
  %18 = load i32* %src.i, align 4, !dbg !3212
  %idxprom2.i = zext i32 %18 to i64, !dbg !3212
  %psrc.i = getelementptr inbounds %struct.Graph* %this1.i, i32 0, i32 6, !dbg !3212
  %19 = load i32** %psrc.i, align 8, !dbg !3212
  %arrayidx3.i = getelementptr inbounds i32* %19, i64 %idxprom2.i, !dbg !3212
  %20 = load i32* %arrayidx3.i, align 4, !dbg !3212
  store i32 %20, i32* %dstindex.i, align 4, !dbg !3212
  %21 = load i32* %src.i, align 4, !dbg !3213
  %idxprom4.i = zext i32 %21 to i64, !dbg !3213
  %noutgoing.i = getelementptr inbounds %struct.Graph* %this1.i, i32 0, i32 3, !dbg !3213
  %22 = load i32** %noutgoing.i, align 8, !dbg !3213
  %arrayidx5.i = getelementptr inbounds i32* %22, i64 %idxprom4.i, !dbg !3213
  %23 = load i32* %arrayidx5.i, align 4, !dbg !3213
  store i32 %23, i32* %degree.i, align 4, !dbg !3213
  %24 = load i32* %degree.i, align 4, !dbg !3214
  %tobool.i = icmp ne i32 %24, 0, !dbg !3214
  br i1 %tobool.i, label %land.lhs.true.i, label %if.end54.i, !dbg !3214

land.lhs.true.i:                                  ; preds = %for.body.i
  %25 = load i32* %dstindex.i, align 4, !dbg !3214
  %idxprom6.i = zext i32 %25 to i64, !dbg !3214
  %edgessrcdst.i = getelementptr inbounds %struct.Graph* %this1.i, i32 0, i32 7, !dbg !3214
  %26 = load i32** %edgessrcdst.i, align 8, !dbg !3214
  %arrayidx7.i = getelementptr inbounds i32* %26, i64 %idxprom6.i, !dbg !3214
  %27 = load i32* %arrayidx7.i, align 4, !dbg !3214
  %idxprom8.i = zext i32 %27 to i64, !dbg !3214
  %srcsrc9.i = getelementptr inbounds %struct.Graph* %this1.i, i32 0, i32 5, !dbg !3214
  %28 = load i32** %srcsrc9.i, align 8, !dbg !3214
  %arrayidx10.i = getelementptr inbounds i32* %28, i64 %idxprom8.i, !dbg !3214
  %29 = load i32* %arrayidx10.i, align 4, !dbg !3214
  %30 = load i32* %src.i, align 4, !dbg !3214
  %add.i = add i32 %30, 150, !dbg !3214
  %cmp11.i = icmp ugt i32 %29, %add.i, !dbg !3214
  br i1 %cmp11.i, label %if.then.i, label %if.end54.i, !dbg !3214

if.then.i:                                        ; preds = %land.lhs.true.i
  %31 = load i32* %degree.i, align 4, !dbg !3215
  store i32 %31, i32* %nee.i, align 4, !dbg !3215
  store i32 0, i32* %ee.i, align 4, !dbg !3216
  br label %for.cond12.i, !dbg !3216

for.cond12.i:                                     ; preds = %if.end.i, %if.then.i
  %32 = load i32* %ee.i, align 4, !dbg !3216
  %33 = load i32* %nee.i, align 4, !dbg !3216
  %cmp13.i = icmp ult i32 %32, %33, !dbg !3216
  br i1 %cmp13.i, label %for.body14.i, label %for.end.i, !dbg !3216

for.body14.i:                                     ; preds = %for.cond12.i
  %34 = load i32* %dstindex.i, align 4, !dbg !3217
  %35 = load i32* %ee.i, align 4, !dbg !3217
  %add15.i = add i32 %34, %35, !dbg !3217
  %idxprom16.i = zext i32 %add15.i to i64, !dbg !3217
  %edgessrcdst17.i = getelementptr inbounds %struct.Graph* %this1.i, i32 0, i32 7, !dbg !3217
  %36 = load i32** %edgessrcdst17.i, align 8, !dbg !3217
  %arrayidx18.i = getelementptr inbounds i32* %36, i64 %idxprom16.i, !dbg !3217
  %37 = load i32* %arrayidx18.i, align 4, !dbg !3217
  store i32 %37, i32* %dst.i, align 4, !dbg !3217
  %38 = load i32* %dst.i, align 4, !dbg !3218
  %idxprom19.i = zext i32 %38 to i64, !dbg !3218
  %srcsrc20.i = getelementptr inbounds %struct.Graph* %this1.i, i32 0, i32 5, !dbg !3218
  %39 = load i32** %srcsrc20.i, align 8, !dbg !3218
  %arrayidx21.i = getelementptr inbounds i32* %39, i64 %idxprom19.i, !dbg !3218
  %40 = load i32* %arrayidx21.i, align 4, !dbg !3218
  store i32 %40, i32* %dstentry.i, align 4, !dbg !3218
  %41 = load i32* %insertindex.i, align 4, !dbg !3219
  %idxprom22.i = zext i32 %41 to i64, !dbg !3219
  %psrc23.i = getelementptr inbounds %struct.Graph* %this1.i, i32 0, i32 6, !dbg !3219
  %42 = load i32** %psrc23.i, align 8, !dbg !3219
  %arrayidx24.i = getelementptr inbounds i32* %42, i64 %idxprom22.i, !dbg !3219
  %43 = load i32* %arrayidx24.i, align 4, !dbg !3219
  store i32 %43, i32* %temp.i, align 4, !dbg !3219
  %44 = load i32* %dstentry.i, align 4, !dbg !3220
  %idxprom25.i = zext i32 %44 to i64, !dbg !3220
  %psrc26.i = getelementptr inbounds %struct.Graph* %this1.i, i32 0, i32 6, !dbg !3220
  %45 = load i32** %psrc26.i, align 8, !dbg !3220
  %arrayidx27.i = getelementptr inbounds i32* %45, i64 %idxprom25.i, !dbg !3220
  %46 = load i32* %arrayidx27.i, align 4, !dbg !3220
  %47 = load i32* %insertindex.i, align 4, !dbg !3220
  %idxprom28.i = zext i32 %47 to i64, !dbg !3220
  %psrc29.i = getelementptr inbounds %struct.Graph* %this1.i, i32 0, i32 6, !dbg !3220
  %48 = load i32** %psrc29.i, align 8, !dbg !3220
  %arrayidx30.i = getelementptr inbounds i32* %48, i64 %idxprom28.i, !dbg !3220
  store i32 %46, i32* %arrayidx30.i, align 4, !dbg !3220
  %49 = load i32* %temp.i, align 4, !dbg !3221
  %50 = load i32* %dstentry.i, align 4, !dbg !3221
  %idxprom31.i = zext i32 %50 to i64, !dbg !3221
  %psrc32.i = getelementptr inbounds %struct.Graph* %this1.i, i32 0, i32 6, !dbg !3221
  %51 = load i32** %psrc32.i, align 8, !dbg !3221
  %arrayidx33.i = getelementptr inbounds i32* %51, i64 %idxprom31.i, !dbg !3221
  store i32 %49, i32* %arrayidx33.i, align 4, !dbg !3221
  %52 = load i32* %ii.i, align 4, !dbg !3222
  %idxprom34.i = zext i32 %52 to i64, !dbg !3222
  %srcsrc35.i = getelementptr inbounds %struct.Graph* %this1.i, i32 0, i32 5, !dbg !3222
  %53 = load i32** %srcsrc35.i, align 8, !dbg !3222
  %arrayidx36.i = getelementptr inbounds i32* %53, i64 %idxprom34.i, !dbg !3222
  %54 = load i32* %arrayidx36.i, align 4, !dbg !3222
  store i32 %54, i32* %temp.i, align 4, !dbg !3222
  %55 = load i32* %dst.i, align 4, !dbg !3223
  %idxprom37.i = zext i32 %55 to i64, !dbg !3223
  %srcsrc38.i = getelementptr inbounds %struct.Graph* %this1.i, i32 0, i32 5, !dbg !3223
  %56 = load i32** %srcsrc38.i, align 8, !dbg !3223
  %arrayidx39.i = getelementptr inbounds i32* %56, i64 %idxprom37.i, !dbg !3223
  %57 = load i32* %arrayidx39.i, align 4, !dbg !3223
  %58 = load i32* %ii.i, align 4, !dbg !3223
  %idxprom40.i = zext i32 %58 to i64, !dbg !3223
  %srcsrc41.i = getelementptr inbounds %struct.Graph* %this1.i, i32 0, i32 5, !dbg !3223
  %59 = load i32** %srcsrc41.i, align 8, !dbg !3223
  %arrayidx42.i = getelementptr inbounds i32* %59, i64 %idxprom40.i, !dbg !3223
  store i32 %57, i32* %arrayidx42.i, align 4, !dbg !3223
  %60 = load i32* %temp.i, align 4, !dbg !3224
  %61 = load i32* %dst.i, align 4, !dbg !3224
  %idxprom43.i = zext i32 %61 to i64, !dbg !3224
  %srcsrc44.i = getelementptr inbounds %struct.Graph* %this1.i, i32 0, i32 5, !dbg !3224
  %62 = load i32** %srcsrc44.i, align 8, !dbg !3224
  %arrayidx45.i = getelementptr inbounds i32* %62, i64 %idxprom43.i, !dbg !3224
  store i32 %60, i32* %arrayidx45.i, align 4, !dbg !3224
  %63 = load i32* %insertindex.i, align 4, !dbg !3225
  %inc.i = add i32 %63, 1, !dbg !3225
  store i32 %inc.i, i32* %insertindex.i, align 4, !dbg !3225
  %nnodes46.i = getelementptr inbounds %struct.Graph* %this1.i, i32 0, i32 1, !dbg !3225
  %64 = load i32* %nnodes46.i, align 4, !dbg !3225
  %cmp47.i = icmp uge i32 %inc.i, %64, !dbg !3225
  br i1 %cmp47.i, label %for.end.i, label %if.end.i, !dbg !3225

if.end.i:                                         ; preds = %for.body14.i
  %65 = load i32* %ee.i, align 4, !dbg !3216
  %inc49.i = add i32 %65, 1, !dbg !3216
  store i32 %inc49.i, i32* %ee.i, align 4, !dbg !3216
  br label %for.cond12.i, !dbg !3216

for.end.i:                                        ; preds = %for.body14.i, %for.cond12.i
  %66 = load i32* %insertindex.i, align 4, !dbg !3226
  %nnodes50.i = getelementptr inbounds %struct.Graph* %this1.i, i32 0, i32 1, !dbg !3226
  %67 = load i32* %nnodes50.i, align 4, !dbg !3226
  %cmp51.i = icmp uge i32 %66, %67, !dbg !3226
  br i1 %cmp51.i, label %_ZN5Graph11optimizeoneEv.exit, label %if.end54.i, !dbg !3226

if.end54.i:                                       ; preds = %for.end.i, %land.lhs.true.i, %for.body.i
  %68 = load i32* %ii.i, align 4, !dbg !3210
  %inc56.i = add i32 %68, 1, !dbg !3210
  store i32 %inc56.i, i32* %ii.i, align 4, !dbg !3210
  br label %for.cond.i, !dbg !3210

_ZN5Graph11optimizeoneEv.exit:                    ; preds = %for.end.i, %for.cond.i
  %69 = bitcast %struct.Graph** %this.addr.i to i8*, !dbg !3227
  %70 = bitcast i32* %nvv.i to i8*, !dbg !3227
  %71 = bitcast i32* %insertindex.i to i8*, !dbg !3227
  %72 = bitcast i32* %ii.i to i8*, !dbg !3227
  %73 = bitcast i32* %src.i to i8*, !dbg !3227
  %74 = bitcast i32* %dstindex.i to i8*, !dbg !3227
  %75 = bitcast i32* %degree.i to i8*, !dbg !3227
  %76 = bitcast i32* %nee.i to i8*, !dbg !3227
  %77 = bitcast i32* %ee.i to i8*, !dbg !3227
  %78 = bitcast i32* %dst.i to i8*, !dbg !3227
  %79 = bitcast i32* %dstentry.i to i8*, !dbg !3227
  %80 = bitcast i32* %temp.i to i8*, !dbg !3227
  %81 = bitcast %struct.Graph** %this.addr.i1 to i8*
  %82 = bitcast i32* %nvv.i2 to i8*
  %83 = bitcast i32* %temp.i3 to i8*
  %84 = bitcast i32* %ii.i4 to i8*
  %85 = bitcast i32* %one.i to i8*
  %86 = bitcast i32* %two.i to i8*
  %87 = bitcast i32* %degreeone.i to i8*
  %88 = bitcast i32* %degreetwo.i to i8*
  store %struct.Graph* %this1, %struct.Graph** %this.addr.i1, align 8
  %this1.i5 = load %struct.Graph** %this.addr.i1
  %nnodes.i6 = getelementptr inbounds %struct.Graph* %this1.i5, i32 0, i32 1, !dbg !3228
  %89 = load i32* %nnodes.i6, align 4, !dbg !3228
  %int_cast_to_i64 = zext i32 2 to i64
  call void @klee_div_zero_check(i64 %int_cast_to_i64)
  %div.i = udiv i32 %89, 2, !dbg !3228
  store i32 %div.i, i32* %nvv.i2, align 4, !dbg !3228
  store i8 1, i8* %firsthalfsmaller.i, align 1, !dbg !3230
  store i32 0, i32* %ii.i4, align 4, !dbg !3231
  br label %for.cond.i8, !dbg !3231

for.cond.i8:                                      ; preds = %if.end.i29, %_ZN5Graph11optimizeoneEv.exit
  %90 = load i32* %ii.i4, align 4, !dbg !3231
  %91 = load i32* %nvv.i2, align 4, !dbg !3231
  %cmp.i7 = icmp ult i32 %90, %91, !dbg !3231
  br i1 %cmp.i7, label %for.body.i14, label %_ZN5Graph11optimizetwoEv.exit, !dbg !3231

for.body.i14:                                     ; preds = %for.cond.i8
  %92 = load i32* %ii.i4, align 4, !dbg !3232
  store i32 %92, i32* %one.i, align 4, !dbg !3232
  %93 = load i32* %nvv.i2, align 4, !dbg !3233
  %94 = load i32* %ii.i4, align 4, !dbg !3233
  %add.i9 = add i32 %93, %94, !dbg !3233
  store i32 %add.i9, i32* %two.i, align 4, !dbg !3233
  %95 = load i32* %one.i, align 4, !dbg !3234
  %idxprom.i10 = zext i32 %95 to i64, !dbg !3234
  %noutgoing.i11 = getelementptr inbounds %struct.Graph* %this1.i5, i32 0, i32 3, !dbg !3234
  %96 = load i32** %noutgoing.i11, align 8, !dbg !3234
  %arrayidx.i12 = getelementptr inbounds i32* %96, i64 %idxprom.i10, !dbg !3234
  %97 = load i32* %arrayidx.i12, align 4, !dbg !3234
  store i32 %97, i32* %degreeone.i, align 4, !dbg !3234
  %98 = load i32* %two.i, align 4, !dbg !3235
  %idxprom2.i13 = zext i32 %98 to i64, !dbg !3235
  %noutgoing3.i = getelementptr inbounds %struct.Graph* %this1.i5, i32 0, i32 3, !dbg !3235
  %99 = load i32** %noutgoing3.i, align 8, !dbg !3235
  %arrayidx4.i = getelementptr inbounds i32* %99, i64 %idxprom2.i13, !dbg !3235
  %100 = load i32* %arrayidx4.i, align 4, !dbg !3235
  store i32 %100, i32* %degreetwo.i, align 4, !dbg !3235
  %101 = load i32* %degreeone.i, align 4, !dbg !3236
  %102 = load i32* %degreetwo.i, align 4, !dbg !3236
  %cmp5.i = icmp ugt i32 %101, %102, !dbg !3236
  br i1 %cmp5.i, label %land.lhs.true.i15, label %lor.lhs.false.i, !dbg !3236

land.lhs.true.i15:                                ; preds = %for.body.i14
  %103 = load i32* %degreeone.i, align 4, !dbg !3236
  %104 = load i32* %degreetwo.i, align 4, !dbg !3236
  %sub.i = sub i32 %103, %104, !dbg !3236
  %cmp6.i = icmp ugt i32 %sub.i, 10, !dbg !3236
  br i1 %cmp6.i, label %land.lhs.true7.i, label %lor.lhs.false.i, !dbg !3236

land.lhs.true7.i:                                 ; preds = %land.lhs.true.i15
  %105 = load i8* %firsthalfsmaller.i, align 1, !dbg !3236
  %tobool.i16 = trunc i8 %105 to i1, !dbg !3236
  br i1 %tobool.i16, label %lor.lhs.false.i, label %if.then.i28, !dbg !3236

lor.lhs.false.i:                                  ; preds = %land.lhs.true7.i, %land.lhs.true.i15, %for.body.i14
  %106 = load i32* %degreetwo.i, align 4, !dbg !3236
  %107 = load i32* %degreeone.i, align 4, !dbg !3236
  %cmp8.i = icmp ugt i32 %106, %107, !dbg !3236
  br i1 %cmp8.i, label %land.lhs.true9.i, label %if.end.i29, !dbg !3236

land.lhs.true9.i:                                 ; preds = %lor.lhs.false.i
  %108 = load i32* %degreetwo.i, align 4, !dbg !3236
  %109 = load i32* %degreeone.i, align 4, !dbg !3236
  %sub10.i = sub i32 %108, %109, !dbg !3236
  %cmp11.i17 = icmp ugt i32 %sub10.i, 10, !dbg !3236
  br i1 %cmp11.i17, label %land.lhs.true12.i, label %if.end.i29, !dbg !3236

land.lhs.true12.i:                                ; preds = %land.lhs.true9.i
  %110 = load i8* %firsthalfsmaller.i, align 1, !dbg !3236
  %tobool13.i = trunc i8 %110 to i1, !dbg !3236
  br i1 %tobool13.i, label %if.then.i28, label %if.end.i29, !dbg !3236

if.then.i28:                                      ; preds = %land.lhs.true12.i, %land.lhs.true7.i
  %111 = load i32* %one.i, align 4, !dbg !3237
  %idxprom14.i = zext i32 %111 to i64, !dbg !3237
  %srcsrc.i18 = getelementptr inbounds %struct.Graph* %this1.i5, i32 0, i32 5, !dbg !3237
  %112 = load i32** %srcsrc.i18, align 8, !dbg !3237
  %arrayidx15.i = getelementptr inbounds i32* %112, i64 %idxprom14.i, !dbg !3237
  %113 = load i32* %arrayidx15.i, align 4, !dbg !3237
  store i32 %113, i32* %temp.i3, align 4, !dbg !3237
  %114 = load i32* %two.i, align 4, !dbg !3238
  %idxprom16.i19 = zext i32 %114 to i64, !dbg !3238
  %srcsrc17.i = getelementptr inbounds %struct.Graph* %this1.i5, i32 0, i32 5, !dbg !3238
  %115 = load i32** %srcsrc17.i, align 8, !dbg !3238
  %arrayidx18.i20 = getelementptr inbounds i32* %115, i64 %idxprom16.i19, !dbg !3238
  %116 = load i32* %arrayidx18.i20, align 4, !dbg !3238
  %117 = load i32* %one.i, align 4, !dbg !3238
  %idxprom19.i21 = zext i32 %117 to i64, !dbg !3238
  %srcsrc20.i22 = getelementptr inbounds %struct.Graph* %this1.i5, i32 0, i32 5, !dbg !3238
  %118 = load i32** %srcsrc20.i22, align 8, !dbg !3238
  %arrayidx21.i23 = getelementptr inbounds i32* %118, i64 %idxprom19.i21, !dbg !3238
  store i32 %116, i32* %arrayidx21.i23, align 4, !dbg !3238
  %119 = load i32* %temp.i3, align 4, !dbg !3239
  %120 = load i32* %two.i, align 4, !dbg !3239
  %idxprom22.i24 = zext i32 %120 to i64, !dbg !3239
  %srcsrc23.i = getelementptr inbounds %struct.Graph* %this1.i5, i32 0, i32 5, !dbg !3239
  %121 = load i32** %srcsrc23.i, align 8, !dbg !3239
  %arrayidx24.i25 = getelementptr inbounds i32* %121, i64 %idxprom22.i24, !dbg !3239
  store i32 %119, i32* %arrayidx24.i25, align 4, !dbg !3239
  %122 = load i32* %one.i, align 4, !dbg !3240
  %idxprom25.i26 = zext i32 %122 to i64, !dbg !3240
  %psrc.i27 = getelementptr inbounds %struct.Graph* %this1.i5, i32 0, i32 6, !dbg !3240
  %123 = load i32** %psrc.i27, align 8, !dbg !3240
  %arrayidx26.i = getelementptr inbounds i32* %123, i64 %idxprom25.i26, !dbg !3240
  %124 = load i32* %arrayidx26.i, align 4, !dbg !3240
  store i32 %124, i32* %temp.i3, align 4, !dbg !3240
  %125 = load i32* %two.i, align 4, !dbg !3241
  %idxprom27.i = zext i32 %125 to i64, !dbg !3241
  %psrc28.i = getelementptr inbounds %struct.Graph* %this1.i5, i32 0, i32 6, !dbg !3241
  %126 = load i32** %psrc28.i, align 8, !dbg !3241
  %arrayidx29.i = getelementptr inbounds i32* %126, i64 %idxprom27.i, !dbg !3241
  %127 = load i32* %arrayidx29.i, align 4, !dbg !3241
  %128 = load i32* %one.i, align 4, !dbg !3241
  %idxprom30.i = zext i32 %128 to i64, !dbg !3241
  %psrc31.i = getelementptr inbounds %struct.Graph* %this1.i5, i32 0, i32 6, !dbg !3241
  %129 = load i32** %psrc31.i, align 8, !dbg !3241
  %arrayidx32.i = getelementptr inbounds i32* %129, i64 %idxprom30.i, !dbg !3241
  store i32 %127, i32* %arrayidx32.i, align 4, !dbg !3241
  %130 = load i32* %temp.i3, align 4, !dbg !3242
  %131 = load i32* %two.i, align 4, !dbg !3242
  %idxprom33.i = zext i32 %131 to i64, !dbg !3242
  %psrc34.i = getelementptr inbounds %struct.Graph* %this1.i5, i32 0, i32 6, !dbg !3242
  %132 = load i32** %psrc34.i, align 8, !dbg !3242
  %arrayidx35.i = getelementptr inbounds i32* %132, i64 %idxprom33.i, !dbg !3242
  store i32 %130, i32* %arrayidx35.i, align 4, !dbg !3242
  %133 = load i8* %firsthalfsmaller.i, align 1, !dbg !3243
  %tobool36.i = trunc i8 %133 to i1, !dbg !3243
  %lnot.i = xor i1 %tobool36.i, true, !dbg !3243
  %frombool.i = zext i1 %lnot.i to i8, !dbg !3243
  store i8 %frombool.i, i8* %firsthalfsmaller.i, align 1, !dbg !3243
  br label %if.end.i29, !dbg !3244

if.end.i29:                                       ; preds = %if.then.i28, %land.lhs.true12.i, %land.lhs.true9.i, %lor.lhs.false.i
  %134 = load i32* %ii.i4, align 4, !dbg !3231
  %inc.i30 = add i32 %134, 1, !dbg !3231
  store i32 %inc.i30, i32* %ii.i4, align 4, !dbg !3231
  br label %for.cond.i8, !dbg !3231

_ZN5Graph11optimizetwoEv.exit:                    ; preds = %for.cond.i8
  %135 = bitcast %struct.Graph** %this.addr.i1 to i8*, !dbg !3245
  %136 = bitcast i32* %nvv.i2 to i8*, !dbg !3245
  %137 = bitcast i32* %temp.i3 to i8*, !dbg !3245
  %138 = bitcast i32* %ii.i4 to i8*, !dbg !3245
  %139 = bitcast i32* %one.i to i8*, !dbg !3245
  %140 = bitcast i32* %two.i to i8*, !dbg !3245
  %141 = bitcast i32* %degreeone.i to i8*, !dbg !3245
  %142 = bitcast i32* %degreetwo.i to i8*, !dbg !3245
  ret i32 0, !dbg !3246
}

define void @_ZN5Graph13progressPrintEjj(%struct.Graph* %this, i32 %maxii, i32 %ii) uwtable align 2 {
entry:
  %this.addr = alloca %struct.Graph*, align 8
  %maxii.addr = alloca i32, align 4
  %ii.addr = alloca i32, align 4
  %nsteps = alloca i32, align 4
  %ineachstep = alloca i32, align 4
  store %struct.Graph* %this, %struct.Graph** %this.addr, align 8
  store i32 %maxii, i32* %maxii.addr, align 4
  store i32 %ii, i32* %ii.addr, align 4
  %this1 = load %struct.Graph** %this.addr
  store i32 10, i32* %nsteps, align 4, !dbg !3247
  %0 = load i32* %maxii.addr, align 4, !dbg !3249
  %int_cast_to_i64 = zext i32 10 to i64
  call void @klee_div_zero_check(i64 %int_cast_to_i64)
  %div = udiv i32 %0, 10, !dbg !3249
  store i32 %div, i32* %ineachstep, align 4, !dbg !3249
  %1 = load i32* %ineachstep, align 4, !dbg !3250
  %cmp = icmp eq i32 %1, 0, !dbg !3250
  br i1 %cmp, label %if.then, label %if.end, !dbg !3250

if.then:                                          ; preds = %entry
  store i32 1, i32* %ineachstep, align 4, !dbg !3250
  br label %if.end, !dbg !3250

if.end:                                           ; preds = %if.then, %entry
  %2 = load i32* %ii.addr, align 4, !dbg !3251
  %3 = load i32* %ineachstep, align 4, !dbg !3251
  %int_cast_to_i641 = zext i32 %3 to i64
  call void @klee_div_zero_check(i64 %int_cast_to_i641)
  %rem = urem i32 %2, %3, !dbg !3251
  %cmp2 = icmp eq i32 %rem, 0, !dbg !3251
  br i1 %cmp2, label %if.then3, label %if.end6, !dbg !3251

if.then3:                                         ; preds = %if.end
  %4 = load i32* %ii.addr, align 4, !dbg !3252
  %mul = mul i32 %4, 100, !dbg !3252
  %5 = load i32* %maxii.addr, align 4, !dbg !3252
  %int_cast_to_i642 = zext i32 %5 to i64
  call void @klee_div_zero_check(i64 %int_cast_to_i642)
  %div4 = udiv i32 %mul, %5, !dbg !3252
  %add = add i32 %div4, 1, !dbg !3252
  %call = call i32 (i8*, ...)* @printf(i8* getelementptr inbounds ([8 x i8]* @.str18, i32 0, i32 0), i32 %add), !dbg !3252
  %6 = load %struct._IO_FILE** @stdout, align 8, !dbg !3254
  %call5 = call i32 @fflush(%struct._IO_FILE* %6), !dbg !3254
  br label %if.end6, !dbg !3255

if.end6:                                          ; preds = %if.then3, %if.end
  ret void, !dbg !3256
}

declare i32 @fflush(%struct._IO_FILE*)

define i32 @_ZN5Graph13readFromEdgesEPc(%struct.Graph* %this, i8* %file) uwtable align 2 {
entry:
  %this.addr.i1 = alloca %struct.Graph*, align 8
  %maxii.addr.i = alloca i32, align 4
  %ii.addr.i = alloca i32, align 4
  %nsteps.i = alloca i32, align 4
  %ineachstep.i = alloca i32, align 4
  %this.addr.i = alloca %struct.Graph*, align 8
  %this.addr = alloca %struct.Graph*, align 8
  %file.addr = alloca i8*, align 8
  %cfile = alloca %"class.std::basic_ifstream", align 8
  %exn.slot = alloca i8*
  %ehselector.slot = alloca i32
  %str = alloca %"class.std::basic_string", align 8
  %ii = alloca i32, align 4
  %prevnode = alloca i32, align 4
  %tempsrcnode = alloca i32, align 4
  %ncurroutgoing = alloca i32, align 4
  %ii11 = alloca i32, align 4
  %cleanup.dest.slot = alloca i32
  store %struct.Graph* %this, %struct.Graph** %this.addr, align 8
  store i8* %file, i8** %file.addr, align 8
  %this1 = load %struct.Graph** %this.addr
  call void @_ZNSt14basic_ifstreamIcSt11char_traitsIcEEC1Ev(%"class.std::basic_ifstream"* %cfile), !dbg !3257
  %0 = load i8** %file.addr, align 8, !dbg !3259
  invoke void @_ZNSt14basic_ifstreamIcSt11char_traitsIcEE4openEPKcSt13_Ios_Openmode(%"class.std::basic_ifstream"* %cfile, i8* %0, i32 8)
          to label %invoke.cont unwind label %lpad, !dbg !3259

invoke.cont:                                      ; preds = %entry
  invoke void @_ZNSsC1Ev(%"class.std::basic_string"* %str)
          to label %invoke.cont2 unwind label %lpad, !dbg !3260

invoke.cont2:                                     ; preds = %invoke.cont
  %1 = bitcast %"class.std::basic_ifstream"* %cfile to %"class.std::basic_istream"*, !dbg !3261
  %call = invoke %"class.std::basic_istream"* @_ZSt7getlineIcSt11char_traitsIcESaIcEERSt13basic_istreamIT_T0_ES7_RSbIS4_S5_T1_E(%"class.std::basic_istream"* %1, %"class.std::basic_string"* %str)
          to label %invoke.cont4 unwind label %lpad3, !dbg !3261

invoke.cont4:                                     ; preds = %invoke.cont2
  %call6 = invoke i8* @_ZNKSs5c_strEv(%"class.std::basic_string"* %str)
          to label %invoke.cont5 unwind label %lpad3, !dbg !3262

invoke.cont5:                                     ; preds = %invoke.cont4
  %nnodes = getelementptr inbounds %struct.Graph* %this1, i32 0, i32 1, !dbg !3262
  %nedges = getelementptr inbounds %struct.Graph* %this1, i32 0, i32 2, !dbg !3262
  %call7 = call i32 (i8*, i8*, ...)* @sscanf(i8* %call6, i8* getelementptr inbounds ([6 x i8]* @.str19, i32 0, i32 0), i32* %nnodes, i32* %nedges) nounwind, !dbg !3262
  %2 = bitcast %struct.Graph** %this.addr.i to i8*
  store %struct.Graph* %this1, %struct.Graph** %this.addr.i, align 8
  %this1.i = load %struct.Graph** %this.addr.i
  %nedges.i = getelementptr inbounds %struct.Graph* %this1.i, i32 0, i32 2, !dbg !3263
  %3 = load i32* %nedges.i, align 4, !dbg !3263
  %add.i = add i32 %3, 1, !dbg !3263
  %conv.i = zext i32 %add.i to i64, !dbg !3263
  %mul.i = mul i64 %conv.i, 4, !dbg !3263
  %call.i = call noalias i8* @malloc(i64 %mul.i) nounwind, !dbg !3263
  %4 = bitcast i8* %call.i to i32*, !dbg !3263
  %edgessrcdst.i = getelementptr inbounds %struct.Graph* %this1.i, i32 0, i32 7, !dbg !3263
  store i32* %4, i32** %edgessrcdst.i, align 8, !dbg !3263
  %nedges2.i = getelementptr inbounds %struct.Graph* %this1.i, i32 0, i32 2, !dbg !3265
  %5 = load i32* %nedges2.i, align 4, !dbg !3265
  %add3.i = add i32 %5, 1, !dbg !3265
  %conv4.i = zext i32 %add3.i to i64, !dbg !3265
  %mul5.i = mul i64 %conv4.i, 4, !dbg !3265
  %call6.i = call noalias i8* @malloc(i64 %mul5.i) nounwind, !dbg !3265
  %6 = bitcast i8* %call6.i to i32*, !dbg !3265
  %edgessrcwt.i = getelementptr inbounds %struct.Graph* %this1.i, i32 0, i32 8, !dbg !3265
  store i32* %6, i32** %edgessrcwt.i, align 8, !dbg !3265
  %nnodes.i = getelementptr inbounds %struct.Graph* %this1.i, i32 0, i32 1, !dbg !3266
  %7 = load i32* %nnodes.i, align 4, !dbg !3266
  %add7.i = add i32 %7, 1, !dbg !3266
  %conv8.i = zext i32 %add7.i to i64, !dbg !3266
  %call9.i = call noalias i8* @calloc(i64 %conv8.i, i64 4) nounwind, !dbg !3266
  %8 = bitcast i8* %call9.i to i32*, !dbg !3266
  %psrc.i = getelementptr inbounds %struct.Graph* %this1.i, i32 0, i32 6, !dbg !3266
  store i32* %8, i32** %psrc.i, align 8, !dbg !3266
  %nedges10.i = getelementptr inbounds %struct.Graph* %this1.i, i32 0, i32 2, !dbg !3267
  %9 = load i32* %nedges10.i, align 4, !dbg !3267
  %nnodes11.i = getelementptr inbounds %struct.Graph* %this1.i, i32 0, i32 1, !dbg !3267
  %10 = load i32* %nnodes11.i, align 4, !dbg !3267
  %idxprom.i = zext i32 %10 to i64, !dbg !3267
  %psrc12.i = getelementptr inbounds %struct.Graph* %this1.i, i32 0, i32 6, !dbg !3267
  %11 = load i32** %psrc12.i, align 8, !dbg !3267
  %arrayidx.i = getelementptr inbounds i32* %11, i64 %idxprom.i, !dbg !3267
  store i32 %9, i32* %arrayidx.i, align 4, !dbg !3267
  %nnodes13.i = getelementptr inbounds %struct.Graph* %this1.i, i32 0, i32 1, !dbg !3268
  %12 = load i32* %nnodes13.i, align 4, !dbg !3268
  %conv14.i = zext i32 %12 to i64, !dbg !3268
  %call15.i = call noalias i8* @calloc(i64 %conv14.i, i64 4) nounwind, !dbg !3268
  %13 = bitcast i8* %call15.i to i32*, !dbg !3268
  %noutgoing.i = getelementptr inbounds %struct.Graph* %this1.i, i32 0, i32 3, !dbg !3268
  store i32* %13, i32** %noutgoing.i, align 8, !dbg !3268
  %nnodes16.i = getelementptr inbounds %struct.Graph* %this1.i, i32 0, i32 1, !dbg !3269
  %14 = load i32* %nnodes16.i, align 4, !dbg !3269
  %conv17.i = zext i32 %14 to i64, !dbg !3269
  %call18.i = call noalias i8* @calloc(i64 %conv17.i, i64 4) nounwind, !dbg !3269
  %15 = bitcast i8* %call18.i to i32*, !dbg !3269
  %nincoming.i = getelementptr inbounds %struct.Graph* %this1.i, i32 0, i32 4, !dbg !3269
  store i32* %15, i32** %nincoming.i, align 8, !dbg !3269
  %nnodes19.i = getelementptr inbounds %struct.Graph* %this1.i, i32 0, i32 1, !dbg !3270
  %16 = load i32* %nnodes19.i, align 4, !dbg !3270
  %conv20.i = zext i32 %16 to i64, !dbg !3270
  %mul21.i = mul i64 %conv20.i, 4, !dbg !3270
  %call22.i = call noalias i8* @malloc(i64 %mul21.i) nounwind, !dbg !3270
  %17 = bitcast i8* %call22.i to i32*, !dbg !3270
  %srcsrc.i = getelementptr inbounds %struct.Graph* %this1.i, i32 0, i32 5, !dbg !3270
  store i32* %17, i32** %srcsrc.i, align 8, !dbg !3270
  %call23.i = call noalias i8* @malloc(i64 4) nounwind, !dbg !3271
  %18 = bitcast i8* %call23.i to i32*, !dbg !3271
  %maxOutDegree.i = getelementptr inbounds %struct.Graph* %this1.i, i32 0, i32 11, !dbg !3271
  store i32* %18, i32** %maxOutDegree.i, align 8, !dbg !3271
  %call24.i = call noalias i8* @malloc(i64 4) nounwind, !dbg !3272
  %19 = bitcast i8* %call24.i to i32*, !dbg !3272
  %maxInDegree.i = getelementptr inbounds %struct.Graph* %this1.i, i32 0, i32 12, !dbg !3272
  store i32* %19, i32** %maxInDegree.i, align 8, !dbg !3272
  %maxOutDegree25.i = getelementptr inbounds %struct.Graph* %this1.i, i32 0, i32 11, !dbg !3273
  %20 = load i32** %maxOutDegree25.i, align 8, !dbg !3273
  store i32 0, i32* %20, align 4, !dbg !3273
  %maxInDegree26.i = getelementptr inbounds %struct.Graph* %this1.i, i32 0, i32 12, !dbg !3274
  %21 = load i32** %maxInDegree26.i, align 8, !dbg !3274
  store i32 0, i32* %21, align 4, !dbg !3274
  %memory.i = getelementptr inbounds %struct.Graph* %this1.i, i32 0, i32 0, !dbg !3275
  store i32 1, i32* %memory.i, align 4, !dbg !3275
  %22 = bitcast %struct.Graph** %this.addr.i to i8*, !dbg !3276
  store i32 0, i32* %ii, align 4, !dbg !3277
  br label %for.cond, !dbg !3277

for.cond:                                         ; preds = %for.body, %invoke.cont5
  %23 = load i32* %ii, align 4, !dbg !3277
  %nnodes10 = getelementptr inbounds %struct.Graph* %this1, i32 0, i32 1, !dbg !3277
  %24 = load i32* %nnodes10, align 4, !dbg !3277
  %cmp = icmp ult i32 %23, %24, !dbg !3277
  br i1 %cmp, label %for.body, label %for.end, !dbg !3277

for.body:                                         ; preds = %for.cond
  %25 = load i32* %ii, align 4, !dbg !3279
  %26 = load i32* %ii, align 4, !dbg !3279
  %idxprom = zext i32 %26 to i64, !dbg !3279
  %srcsrc = getelementptr inbounds %struct.Graph* %this1, i32 0, i32 5, !dbg !3279
  %27 = load i32** %srcsrc, align 8, !dbg !3279
  %arrayidx = getelementptr inbounds i32* %27, i64 %idxprom, !dbg !3279
  store i32 %25, i32* %arrayidx, align 4, !dbg !3279
  %28 = load i32* %ii, align 4, !dbg !3277
  %inc = add i32 %28, 1, !dbg !3277
  store i32 %inc, i32* %ii, align 4, !dbg !3277
  br label %for.cond, !dbg !3277

lpad:                                             ; preds = %invoke.cont57, %invoke.cont, %entry
  %29 = landingpad { i8*, i32 } personality i8* bitcast (i32 (...)* @__gxx_personality_v0 to i8*)
          cleanup, !dbg !3259
  %30 = extractvalue { i8*, i32 } %29, 0, !dbg !3259
