; ModuleID = 'test'
target datalayout = "e-p:64:64:64-i1:8:8-i8:8:8-i16:16:16-i32:32:32-i64:64:64-f32:32:32-f64:64:64-v64:64:64-v128:128:128-a0:0:64-s0:64:64-f80:128:128-n8:16:32:64-S128"
target triple = "x86_64-unknown-linux-gnu"

%struct.dim3 = type { i32, i32, i32 }
%struct.cudaChannelFormatDesc = type { i32, i32, i32, i32, i32 }
%struct.cudaExtent = type { i64, i64, i64 }
%struct.cudaArray = type opaque
%struct.cudaPitchedPtr = type { i8*, i64, i64, i64 }
%struct.CUstream_st = type opaque
%struct.cudaMemcpy3DParms = type { %struct.cudaArray*, %struct.cudaPos, %struct.cudaPitchedPtr, %struct.cudaArray*, %struct.cudaPos, %struct.cudaPitchedPtr, %struct.cudaExtent, i32 }
%struct.cudaPos = type { i64, i64, i64 }
%struct.cudaMemcpy3DPeerParms = type { %struct.cudaArray*, %struct.cudaPos, %struct.cudaPitchedPtr, i32, %struct.cudaArray*, %struct.cudaPos, %struct.cudaPitchedPtr, i32, %struct.cudaExtent }

@blockIdx = external global %struct.dim3
@threadIdx = external global %struct.dim3
@s_data = external global [0 x float], section "__shared__"
@blockDim = external global %struct.dim3
@gridDim = external global %struct.dim3
@.str2 = private unnamed_addr constant [17 x i8] c"%s Starting...\0A\0A\00", align 1
@.str7 = private unnamed_addr constant [36 x i8] c"Data length: %i; kernel length: %i\0A\00", align 1
@.str9 = private unnamed_addr constant [28 x i8] c"GPU time: %f ms; GOP/s: %f\0A\00", align 1
@.str14 = private unnamed_addr constant [13 x i8] c"L2 norm: %E\0A\00", align 1
@.str15 = private unnamed_addr constant [13 x i8] c"Test passed\0A\00", align 1
@.str16 = private unnamed_addr constant [14 x i8] c"Test failed!\0A\00", align 1
@str = private unnamed_addr constant [35 x i8] c"fwtBatch2Kernel() execution failed\00"
@str17 = private unnamed_addr constant [35 x i8] c"fwtBatch1Kernel() execution failed\00"
@str18 = private unnamed_addr constant [21 x i8] c"Initializing data...\00"
@str19 = private unnamed_addr constant [25 x i8] c"...allocating CPU memory\00"
@str20 = private unnamed_addr constant [25 x i8] c"...allocating GPU memory\00"
@str21 = private unnamed_addr constant [19 x i8] c"...generating data\00"
@str22 = private unnamed_addr constant [61 x i8] c"Running GPU dyadic convolution using Fast Walsh Transform...\00"
@str23 = private unnamed_addr constant [28 x i8] c"Reading back GPU results...\00"
@str24 = private unnamed_addr constant [50 x i8] c"Running straightforward CPU dyadic convolution...\00"
@str25 = private unnamed_addr constant [25 x i8] c"Comparing the results...\00"
@str26 = private unnamed_addr constant [17 x i8] c"Shutting down...\00"
@.str = private unnamed_addr constant [65 x i8] c"/home/sawaya/Gklee/Gklee/runtime/Intrinsic/klee_div_zero_check.c\00", align 1
@.str1 = private unnamed_addr constant [15 x i8] c"divide by zero\00", align 1
@.str21 = private unnamed_addr constant [8 x i8] c"div.err\00", align 1

define void @fwtCPU(float* nocapture %h_Output, float* nocapture %h_Input, i32 %log2N) nounwind uwtable {
entry:
  %shl = shl i32 1, %log2N, !dbg !926
  %cmp86 = icmp sgt i32 %shl, 0, !dbg !927
  br i1 %cmp86, label %for.body, label %for.end31, !dbg !927

for.body:                                         ; preds = %for.body, %entry
  %indvars.iv = phi i64 [ %indvars.iv.next, %for.body ], [ 0, %entry ]
  %arrayidx = getelementptr inbounds float* %h_Input, i64 %indvars.iv, !dbg !928
  %0 = load float* %arrayidx, align 4, !dbg !928, !tbaa !929
  %arrayidx2 = getelementptr inbounds float* %h_Output, i64 %indvars.iv, !dbg !928
  store float %0, float* %arrayidx2, align 4, !dbg !928, !tbaa !929
  %indvars.iv.next = add i64 %indvars.iv, 1, !dbg !927
  %lftr.wideiv = trunc i64 %indvars.iv.next to i32, !dbg !927
  %exitcond = icmp eq i32 %lftr.wideiv, %shl, !dbg !927
  br i1 %exitcond, label %for.end, label %for.body, !dbg !927

for.end:                                          ; preds = %for.body
  %int_cast_to_i64 = zext i32 2 to i64
  call void @klee_div_zero_check(i64 %int_cast_to_i64)
  %div = sdiv i32 %shl, 2, !dbg !932
  %cmp460 = icmp sgt i32 %shl, 1, !dbg !932
  br i1 %cmp460, label %for.cond9.preheader.lr.ph.us, label %for.end31, !dbg !932

for.inc30.us:                                     ; preds = %for.inc27.us.us, %for.inc27.us64
  %shr.us = ashr i32 %stride.061.us, 1, !dbg !932
  %cmp4.us = icmp sgt i32 %shr.us, 0, !dbg !932
  br i1 %cmp4.us, label %for.cond9.preheader.lr.ph.us, label %for.end31, !dbg !932

for.inc27.us64:                                   ; preds = %for.cond9.preheader.lr.ph.us, %for.inc27.us64
  %base.058.us81 = phi i32 [ %add28.us66, %for.inc27.us64 ], [ 0, %for.cond9.preheader.lr.ph.us ]
  %add28.us66 = add nsw i32 %base.058.us81, %mul.us, !dbg !933
  %cmp7.us67 = icmp slt i32 %add28.us66, %shl, !dbg !933
  br i1 %cmp7.us67, label %for.inc27.us64, label %for.inc30.us, !dbg !933

for.cond9.preheader.lr.ph.us:                     ; preds = %for.inc30.us, %for.end
  %stride.061.us = phi i32 [ %shr.us, %for.inc30.us ], [ %div, %for.end ]
  %cmp1055.us = icmp sgt i32 %stride.061.us, 0, !dbg !934
  %mul.us = shl i32 %stride.061.us, 1, !dbg !933
  br i1 %cmp1055.us, label %for.cond9.preheader.lr.ph.split.us.us, label %for.inc27.us64

for.inc27.us.us:                                  ; preds = %for.body11.us.us
  %indvars.iv.next96 = add i64 %indvars.iv95, %8, !dbg !933
  %1 = trunc i64 %indvars.iv.next96 to i32, !dbg !933
  %cmp7.us.us = icmp slt i32 %1, %shl, !dbg !933
  br i1 %cmp7.us.us, label %for.body11.lr.ph.us.us, label %for.inc30.us, !dbg !933

for.body11.lr.ph.us.us:                           ; preds = %for.cond9.preheader.lr.ph.split.us.us, %for.inc27.us.us
  %indvars.iv95 = phi i64 [ 0, %for.cond9.preheader.lr.ph.split.us.us ], [ %indvars.iv.next96, %for.inc27.us.us ]
  br label %for.body11.us.us, !dbg !934

for.body11.us.us:                                 ; preds = %for.body11.us.us, %for.body11.lr.ph.us.us
  %indvars.iv89 = phi i64 [ %indvars.iv.next90, %for.body11.us.us ], [ 0, %for.body11.lr.ph.us.us ]
  %2 = add nsw i64 %indvars.iv89, %indvars.iv95, !dbg !935
  %3 = add nsw i64 %2, %6, !dbg !936
  %arrayidx16.us.us = getelementptr inbounds float* %h_Output, i64 %2, !dbg !937
  %4 = load float* %arrayidx16.us.us, align 4, !dbg !937, !tbaa !929
  %arrayidx18.us.us = getelementptr inbounds float* %h_Output, i64 %3, !dbg !938
  %5 = load float* %arrayidx18.us.us, align 4, !dbg !938, !tbaa !929
  %add19.us.us = fadd float %4, %5, !dbg !939
  store float %add19.us.us, float* %arrayidx16.us.us, align 4, !dbg !939, !tbaa !929
  %sub.us.us = fsub float %4, %5, !dbg !940
  store float %sub.us.us, float* %arrayidx18.us.us, align 4, !dbg !940, !tbaa !929
  %indvars.iv.next90 = add i64 %indvars.iv89, 1, !dbg !934
  %lftr.wideiv93 = trunc i64 %indvars.iv.next90 to i32, !dbg !934
  %exitcond94 = icmp eq i32 %lftr.wideiv93, %stride.061.us, !dbg !934
  br i1 %exitcond94, label %for.inc27.us.us, label %for.body11.us.us, !dbg !934

for.cond9.preheader.lr.ph.split.us.us:            ; preds = %for.cond9.preheader.lr.ph.us
  %6 = sext i32 %stride.061.us to i64, !dbg !933
  %7 = shl i32 %stride.061.us, 1, !dbg !933
  %8 = sext i32 %7 to i64
  br label %for.body11.lr.ph.us.us, !dbg !933

for.end31:                                        ; preds = %for.inc30.us, %for.end, %entry
  ret void, !dbg !941
}

define void @slowWTcpu(float* nocapture %h_Output, float* nocapture %h_Input, i32 %log2N) nounwind uwtable {
entry:
  %shl = shl i32 1, %log2N, !dbg !942
  %cmp34 = icmp sgt i32 %shl, 0, !dbg !943
  br i1 %cmp34, label %for.body3.lr.ph, label %for.end15, !dbg !943

for.body3.lr.ph:                                  ; preds = %for.end9, %entry
  %indvars.iv37 = phi i64 [ %indvars.iv.next38, %for.end9 ], [ 0, %entry ]
  br label %for.body3, !dbg !944

for.body3:                                        ; preds = %for.end, %for.body3.lr.ph
  %indvars.iv = phi i64 [ 0, %for.body3.lr.ph ], [ %indvars.iv.next, %for.end ]
  %sum.031 = phi double [ 0.000000e+00, %for.body3.lr.ph ], [ %add, %for.end ]
  %and41 = and i64 %indvars.iv, %indvars.iv37, !dbg !945
  %and = trunc i64 %and41 to i32, !dbg !945
  %cmp527 = icmp eq i32 %and, 0, !dbg !945
  br i1 %cmp527, label %for.end, label %for.body6, !dbg !945

for.body6:                                        ; preds = %for.inc, %for.body3
  %t.029 = phi i32 [ %shr, %for.inc ], [ %and, %for.body3 ]
  %q.028 = phi double [ %q.1, %for.inc ], [ 1.000000e+00, %for.body3 ]
  %and7 = and i32 %t.029, 1, !dbg !946
  %tobool = icmp eq i32 %and7, 0, !dbg !946
  br i1 %tobool, label %for.inc, label %if.then, !dbg !946

if.then:                                          ; preds = %for.body6
  %sub = fsub double -0.000000e+00, %q.028, !dbg !946
  br label %for.inc, !dbg !946

for.inc:                                          ; preds = %if.then, %for.body6
  %q.1 = phi double [ %sub, %if.then ], [ %q.028, %for.body6 ]
  %shr = ashr i32 %t.029, 1, !dbg !945
  %cmp5 = icmp eq i32 %shr, 0, !dbg !945
  br i1 %cmp5, label %for.end, label %for.body6, !dbg !945

for.end:                                          ; preds = %for.inc, %for.body3
  %q.0.lcssa = phi double [ 1.000000e+00, %for.body3 ], [ %q.1, %for.inc ]
  %arrayidx = getelementptr inbounds float* %h_Input, i64 %indvars.iv, !dbg !947
  %0 = load float* %arrayidx, align 4, !dbg !947, !tbaa !929
  %conv = fpext float %0 to double, !dbg !947
  %mul = fmul double %q.0.lcssa, %conv, !dbg !947
  %add = fadd double %sum.031, %mul, !dbg !947
  %indvars.iv.next = add i64 %indvars.iv, 1, !dbg !944
  %lftr.wideiv = trunc i64 %indvars.iv.next to i32, !dbg !944
  %exitcond = icmp eq i32 %lftr.wideiv, %shl, !dbg !944
  br i1 %exitcond, label %for.end9, label %for.body3, !dbg !944

for.end9:                                         ; preds = %for.end
  %phitmp = fptrunc double %add to float, !dbg !944
  %arrayidx12 = getelementptr inbounds float* %h_Output, i64 %indvars.iv37, !dbg !948
  store float %phitmp, float* %arrayidx12, align 4, !dbg !948, !tbaa !929
  %indvars.iv.next38 = add i64 %indvars.iv37, 1, !dbg !943
  %lftr.wideiv39 = trunc i64 %indvars.iv.next38 to i32, !dbg !943
  %exitcond40 = icmp eq i32 %lftr.wideiv39, %shl, !dbg !943
  br i1 %exitcond40, label %for.end15, label %for.body3.lr.ph, !dbg !943

for.end15:                                        ; preds = %for.end9, %entry
  ret void, !dbg !949
}

define void @dyadicConvolutionCPU(float* nocapture %h_Result, float* nocapture %h_Data, float* nocapture %h_Kernel, i32 %log2dataN, i32 %log2kernelN) nounwind uwtable {
entry:
  %h_Result26 = bitcast float* %h_Result to i8*
  %shl = shl i32 1, %log2dataN, !dbg !950
  %shl1 = shl i32 1, %log2kernelN, !dbg !951
  %cmp23 = icmp sgt i32 %shl, 0, !dbg !952
  br i1 %cmp23, label %for.cond2.preheader.lr.ph, label %for.end12, !dbg !952

for.cond2.preheader.lr.ph:                        ; preds = %entry
  %cmp320 = icmp sgt i32 %shl1, 0, !dbg !953
  br i1 %cmp320, label %for.body4.lr.ph.us, label %for.cond2.preheader.lr.ph.for.cond2.preheader.lr.ph.split_crit_edge

for.cond2.preheader.lr.ph.for.cond2.preheader.lr.ph.split_crit_edge: ; preds = %for.cond2.preheader.lr.ph
  %0 = add i32 %shl, -1, !dbg !952
  %1 = zext i32 %0 to i64
  %2 = shl nuw nsw i64 %1, 2, !dbg !952
  %3 = add i64 %2, 4, !dbg !952
  %4 = call i8* @memset(i8* %h_Result26, i32 0, i64 %3)
  br label %for.end12

for.end.us:                                       ; preds = %for.body4.us
  %phitmp = fptrunc double %add.us to float, !dbg !953
  %arrayidx9.us = getelementptr inbounds float* %h_Result, i64 %indvars.iv27, !dbg !954
  store float %phitmp, float* %arrayidx9.us, align 4, !dbg !954, !tbaa !929
  %indvars.iv.next28 = add i64 %indvars.iv27, 1, !dbg !952
  %lftr.wideiv29 = trunc i64 %indvars.iv.next28 to i32, !dbg !952
  %exitcond30 = icmp eq i32 %lftr.wideiv29, %shl, !dbg !952
  br i1 %exitcond30, label %for.end12, label %for.body4.lr.ph.us, !dbg !952

for.body4.us:                                     ; preds = %for.body4.lr.ph.us, %for.body4.us
  %indvars.iv = phi i64 [ 0, %for.body4.lr.ph.us ], [ %indvars.iv.next, %for.body4.us ]
  %sum.021.us = phi double [ 0.000000e+00, %for.body4.lr.ph.us ], [ %add.us, %for.body4.us ]
  %xor.us31 = xor i64 %indvars.iv, %indvars.iv27, !dbg !955
  %sext = shl i64 %xor.us31, 32, !dbg !955
  %idxprom.us = ashr exact i64 %sext, 32, !dbg !955
  %arrayidx.us = getelementptr inbounds float* %h_Data, i64 %idxprom.us, !dbg !955
  %5 = load float* %arrayidx.us, align 4, !dbg !955, !tbaa !929
  %arrayidx6.us = getelementptr inbounds float* %h_Kernel, i64 %indvars.iv, !dbg !955
  %6 = load float* %arrayidx6.us, align 4, !dbg !955, !tbaa !929
  %mul.us = fmul float %5, %6, !dbg !955
  %conv.us = fpext float %mul.us to double, !dbg !955
  %add.us = fadd double %sum.021.us, %conv.us, !dbg !955
  %indvars.iv.next = add i64 %indvars.iv, 1, !dbg !953
  %lftr.wideiv = trunc i64 %indvars.iv.next to i32, !dbg !953
  %exitcond = icmp eq i32 %lftr.wideiv, %shl1, !dbg !953
  br i1 %exitcond, label %for.end.us, label %for.body4.us, !dbg !953

for.body4.lr.ph.us:                               ; preds = %for.end.us, %for.cond2.preheader.lr.ph
  %indvars.iv27 = phi i64 [ %indvars.iv.next28, %for.end.us ], [ 0, %for.cond2.preheader.lr.ph ]
  br label %for.body4.us, !dbg !953

for.end12:                                        ; preds = %for.end.us, %for.cond2.preheader.lr.ph.for.cond2.preheader.lr.ph.split_crit_edge, %entry
  ret void, !dbg !956
}

declare void @llvm.dbg.value(metadata, i64, metadata) nounwind readnone

declare void @llvm.memset.p0i8.i64(i8* nocapture, i8, i64, i32, i1) nounwind

define void @_Z15fwtBatch1KernelPfS_i(float* nocapture %d_Output, float* nocapture %d_Input, i32 %log2N) uwtable noinline {
entry:
  %shl = shl i32 1, %log2N, !dbg !957
  %0 = load i32* getelementptr inbounds (%struct.dim3* @blockIdx, i64 0, i32 0), align 4, !dbg !958, !tbaa !959
  %shl1 = shl i32 %0, %log2N, !dbg !958
  %idx.ext = sext i32 %shl1 to i64, !dbg !960
  %1 = load i32* getelementptr inbounds (%struct.dim3* @threadIdx, i64 0, i32 0), align 4, !dbg !961, !tbaa !959
  %cmp134 = icmp slt i32 %1, %shl, !dbg !961
  br i1 %cmp134, label %for.body.lr.ph, label %for.end, !dbg !961

for.body.lr.ph:                                   ; preds = %entry
  %2 = load i32* getelementptr inbounds (%struct.dim3* @blockDim, i64 0, i32 0), align 4, !dbg !961, !tbaa !959
  br label %for.body, !dbg !961

for.body:                                         ; preds = %for.body, %for.body.lr.ph
  %pos.0135 = phi i32 [ %1, %for.body.lr.ph ], [ %add, %for.body ]
  %idxprom = sext i32 %pos.0135 to i64, !dbg !962
  %add.ptr.sum = add i64 %idxprom, %idx.ext, !dbg !962
  %arrayidx = getelementptr inbounds float* %d_Input, i64 %add.ptr.sum, !dbg !962
  %3 = load float* %arrayidx, align 4, !dbg !962, !tbaa !929
  %arrayidx5 = getelementptr inbounds [0 x float]* @s_data, i64 0, i64 %idxprom, !dbg !962
  store float %3, float* %arrayidx5, align 4, !dbg !962, !tbaa !929
  %add = add i32 %2, %pos.0135, !dbg !961
  %cmp = icmp slt i32 %add, %shl, !dbg !961
  br i1 %cmp, label %for.body, label %for.end, !dbg !961

for.end:                                          ; preds = %for.body, %entry
  %stride.0131 = ashr i32 %shl, 2, !dbg !964
  %cmp8132 = icmp sgt i32 %stride.0131, 0, !dbg !964
  br i1 %cmp8132, label %for.body9, label %for.end42, !dbg !964

for.body9:                                        ; preds = %for.body9, %for.end
  %stride.0133 = phi i32 [ %stride.0, %for.body9 ], [ %stride.0131, %for.end ]
  %sub = add nsw i32 %stride.0133, -1, !dbg !965
  %and = and i32 %sub, %1, !dbg !965
  %sub10 = sub nsw i32 %1, %and, !dbg !966
  %shl11 = shl i32 %sub10, 2, !dbg !966
  %add12 = add nsw i32 %shl11, %and, !dbg !966
  %add13 = add nsw i32 %add12, %stride.0133, !dbg !967
  %add14 = add nsw i32 %add13, %stride.0133, !dbg !968
  %add15 = add nsw i32 %add14, %stride.0133, !dbg !969
  tail call void @__syncthreads(), !dbg !970
  %idxprom16 = sext i32 %add12 to i64, !dbg !971
  %arrayidx17 = getelementptr inbounds [0 x float]* @s_data, i64 0, i64 %idxprom16, !dbg !971
  %4 = load float* %arrayidx17, align 4, !dbg !971, !tbaa !929
  %idxprom18 = sext i32 %add13 to i64, !dbg !972
  %arrayidx19 = getelementptr inbounds [0 x float]* @s_data, i64 0, i64 %idxprom18, !dbg !972
  %5 = load float* %arrayidx19, align 4, !dbg !972, !tbaa !929
  %idxprom20 = sext i32 %add14 to i64, !dbg !973
  %arrayidx21 = getelementptr inbounds [0 x float]* @s_data, i64 0, i64 %idxprom20, !dbg !973
  %6 = load float* %arrayidx21, align 4, !dbg !973, !tbaa !929
  %idxprom22 = sext i32 %add15 to i64, !dbg !974
  %arrayidx23 = getelementptr inbounds [0 x float]* @s_data, i64 0, i64 %idxprom22, !dbg !974
  %7 = load float* %arrayidx23, align 4, !dbg !974, !tbaa !929
  %add24 = fadd float %4, %6, !dbg !975
  %sub25 = fsub float %4, %6, !dbg !976
  %add26 = fadd float %5, %7, !dbg !977
  %sub27 = fsub float %5, %7, !dbg !978
  %add28 = fadd float %add24, %add26, !dbg !979
  store float %add28, float* %arrayidx17, align 4, !dbg !979, !tbaa !929
  %sub31 = fsub float %add24, %add26, !dbg !980
  store float %sub31, float* %arrayidx19, align 4, !dbg !980, !tbaa !929
  %add34 = fadd float %sub25, %sub27, !dbg !981
  store float %add34, float* %arrayidx21, align 4, !dbg !981, !tbaa !929
  %sub37 = fsub float %sub25, %sub27, !dbg !982
  store float %sub37, float* %arrayidx23, align 4, !dbg !982, !tbaa !929
  %stride.0 = ashr i32 %stride.0133, 2, !dbg !964
  %cmp8 = icmp sgt i32 %stride.0, 0, !dbg !964
  br i1 %cmp8, label %for.body9, label %for.end42, !dbg !964

for.end42:                                        ; preds = %for.body9, %for.end
  %and43 = and i32 %log2N, 1, !dbg !983
  %tobool = icmp eq i32 %and43, 0, !dbg !983
  br i1 %tobool, label %if.end, label %if.then, !dbg !983

if.then:                                          ; preds = %for.end42
  tail call void @__syncthreads(), !dbg !984
  %8 = load i32* getelementptr inbounds (%struct.dim3* @threadIdx, i64 0, i32 0), align 4, !dbg !985, !tbaa !959
  %int_cast_to_i64 = zext i32 2 to i64
  call void @klee_div_zero_check(i64 %int_cast_to_i64)
  %div = sdiv i32 %shl, 2, !dbg !985
  %cmp46129 = icmp slt i32 %8, %div, !dbg !985
  br i1 %cmp46129, label %for.body47.lr.ph, label %if.end, !dbg !985

for.body47.lr.ph:                                 ; preds = %if.then
  %9 = load i32* getelementptr inbounds (%struct.dim3* @blockDim, i64 0, i32 0), align 4, !dbg !985, !tbaa !959
  br label %for.body47, !dbg !985

for.body47:                                       ; preds = %for.body47, %for.body47.lr.ph
  %pos44.0130 = phi i32 [ %8, %for.body47.lr.ph ], [ %add65, %for.body47 ]
  %shl49 = shl i32 %pos44.0130, 1, !dbg !986
  %add51126 = or i32 %shl49, 1, !dbg !987
  %idxprom53 = sext i32 %shl49 to i64, !dbg !988
  %arrayidx54 = getelementptr inbounds [0 x float]* @s_data, i64 0, i64 %idxprom53, !dbg !988
  %10 = load float* %arrayidx54, align 4, !dbg !988, !tbaa !929
  %idxprom56 = sext i32 %add51126 to i64, !dbg !989
  %arrayidx57 = getelementptr inbounds [0 x float]* @s_data, i64 0, i64 %idxprom56, !dbg !989
  %11 = load float* %arrayidx57, align 4, !dbg !989, !tbaa !929
  %add58 = fadd float %10, %11, !dbg !990
  store float %add58, float* %arrayidx54, align 4, !dbg !990, !tbaa !929
  %sub61 = fsub float %10, %11, !dbg !991
  store float %sub61, float* %arrayidx57, align 4, !dbg !991, !tbaa !929
  %add65 = add i32 %9, %pos44.0130, !dbg !985
  %cmp46 = icmp slt i32 %add65, %div, !dbg !985
  br i1 %cmp46, label %for.body47, label %if.end, !dbg !985

if.end:                                           ; preds = %for.body47, %if.then, %for.end42
  tail call void @__syncthreads(), !dbg !992
  %12 = load i32* getelementptr inbounds (%struct.dim3* @threadIdx, i64 0, i32 0), align 4, !dbg !993, !tbaa !959
  %cmp69127 = icmp slt i32 %12, %shl, !dbg !993
  br i1 %cmp69127, label %for.body70.lr.ph, label %for.end77, !dbg !993

for.body70.lr.ph:                                 ; preds = %if.end
  %13 = load i32* getelementptr inbounds (%struct.dim3* @blockDim, i64 0, i32 0), align 4, !dbg !993, !tbaa !959
  br label %for.body70, !dbg !993

for.body70:                                       ; preds = %for.body70, %for.body70.lr.ph
  %pos67.0128 = phi i32 [ %12, %for.body70.lr.ph ], [ %add76, %for.body70 ]
  %idxprom71 = sext i32 %pos67.0128 to i64, !dbg !994
  %arrayidx72 = getelementptr inbounds [0 x float]* @s_data, i64 0, i64 %idxprom71, !dbg !994
  %14 = load float* %arrayidx72, align 4, !dbg !994, !tbaa !929
  %add.ptr3.sum = add i64 %idxprom71, %idx.ext, !dbg !994
  %arrayidx74 = getelementptr inbounds float* %d_Output, i64 %add.ptr3.sum, !dbg !994
  store float %14, float* %arrayidx74, align 4, !dbg !994, !tbaa !929
  %add76 = add i32 %13, %pos67.0128, !dbg !993
  %cmp69 = icmp slt i32 %add76, %shl, !dbg !993
  br i1 %cmp69, label %for.body70, label %for.end77, !dbg !993

for.end77:                                        ; preds = %for.body70, %if.end
  ret void, !dbg !996
}

declare void @llvm.dbg.declare(metadata, metadata) nounwind readnone

declare void @__syncthreads() section "__device__"

define void @_Z15fwtBatch2KernelPfS_i(float* nocapture %d_Output, float* nocapture %d_Input, i32 %stride) nounwind uwtable noinline {
entry:
  %0 = load i32* getelementptr inbounds (%struct.dim3* @blockIdx, i64 0, i32 0), align 4, !dbg !997, !tbaa !959
  %1 = load i32* getelementptr inbounds (%struct.dim3* @blockDim, i64 0, i32 0), align 4, !dbg !997, !tbaa !959
  %mul = mul i32 %1, %0, !dbg !997
  %2 = load i32* getelementptr inbounds (%struct.dim3* @threadIdx, i64 0, i32 0), align 4, !dbg !997, !tbaa !959
  %add = add i32 %mul, %2, !dbg !997
  %3 = load i32* getelementptr inbounds (%struct.dim3* @gridDim, i64 0, i32 0), align 4, !dbg !998, !tbaa !959
  %4 = load i32* getelementptr inbounds (%struct.dim3* @blockIdx, i64 0, i32 1), align 4, !dbg !999, !tbaa !959
  %mul1 = shl i32 %1, 2, !dbg !998
  %mul2 = mul i32 %mul1, %3, !dbg !998
  %mul3 = mul i32 %mul2, %4, !dbg !999
  %idx.ext = zext i32 %mul3 to i64, !dbg !999
  %sub = add nsw i32 %stride, -1, !dbg !1000
  %and = and i32 %add, %sub, !dbg !1000
  %sub7 = sub nsw i32 %add, %and, !dbg !1001
  %shl = shl i32 %sub7, 2, !dbg !1001
  %add8 = add nsw i32 %shl, %and, !dbg !1001
  %add9 = add nsw i32 %add8, %stride, !dbg !1002
  %add10 = add nsw i32 %add9, %stride, !dbg !1003
  %add11 = add nsw i32 %add10, %stride, !dbg !1004
  %idxprom = sext i32 %add8 to i64, !dbg !1005
  %add.ptr.sum = add i64 %idxprom, %idx.ext, !dbg !1005
  %arrayidx = getelementptr inbounds float* %d_Input, i64 %add.ptr.sum, !dbg !1005
  %5 = load float* %arrayidx, align 4, !dbg !1005, !tbaa !929
  %idxprom12 = sext i32 %add9 to i64, !dbg !1006
  %add.ptr.sum68 = add i64 %idxprom12, %idx.ext, !dbg !1006
  %arrayidx13 = getelementptr inbounds float* %d_Input, i64 %add.ptr.sum68, !dbg !1006
  %6 = load float* %arrayidx13, align 4, !dbg !1006, !tbaa !929
  %idxprom14 = sext i32 %add10 to i64, !dbg !1007
  %add.ptr.sum69 = add i64 %idxprom14, %idx.ext, !dbg !1007
  %arrayidx15 = getelementptr inbounds float* %d_Input, i64 %add.ptr.sum69, !dbg !1007
  %7 = load float* %arrayidx15, align 4, !dbg !1007, !tbaa !929
  %idxprom16 = sext i32 %add11 to i64, !dbg !1008
  %add.ptr.sum70 = add i64 %idxprom16, %idx.ext, !dbg !1008
  %arrayidx17 = getelementptr inbounds float* %d_Input, i64 %add.ptr.sum70, !dbg !1008
  %8 = load float* %arrayidx17, align 4, !dbg !1008, !tbaa !929
  %add18 = fadd float %5, %7, !dbg !1009
  %sub19 = fsub float %5, %7, !dbg !1010
  %add20 = fadd float %6, %8, !dbg !1011
  %sub21 = fsub float %6, %8, !dbg !1012
  %add22 = fadd float %add18, %add20, !dbg !1013
  %arrayidx24 = getelementptr inbounds float* %d_Output, i64 %add.ptr.sum, !dbg !1013
  store float %add22, float* %arrayidx24, align 4, !dbg !1013, !tbaa !929
  %sub25 = fsub float %add18, %add20, !dbg !1014
  %arrayidx27 = getelementptr inbounds float* %d_Output, i64 %add.ptr.sum68, !dbg !1014
  store float %sub25, float* %arrayidx27, align 4, !dbg !1014, !tbaa !929
  %add28 = fadd float %sub19, %sub21, !dbg !1015
  %arrayidx30 = getelementptr inbounds float* %d_Output, i64 %add.ptr.sum69, !dbg !1015
  store float %add28, float* %arrayidx30, align 4, !dbg !1015, !tbaa !929
  %sub31 = fsub float %sub19, %sub21, !dbg !1016
  %arrayidx33 = getelementptr inbounds float* %d_Output, i64 %add.ptr.sum70, !dbg !1016
  store float %sub31, float* %arrayidx33, align 4, !dbg !1016, !tbaa !929
  ret void, !dbg !1017
}

define void @_Z11fwtBatchGPUPfii(float* nocapture %d_Data, i32 %M, i32 %log2N) uwtable {
entry:
  %shl = shl i32 1, %log2N, !dbg !1018
  %int_cast_to_i64 = zext i32 1024 to i64
  call void @klee_div_zero_check(i64 %int_cast_to_i64)
  %div = sdiv i32 %shl, 1024, !dbg !1019
  %grid.sroa.0.0.insert.ext = zext i32 %div to i64, !dbg !1020
  %grid.sroa.0.4.insert.ext = zext i32 %M to i64, !dbg !1020
  %grid.sroa.0.4.insert.shift = shl nuw i64 %grid.sroa.0.4.insert.ext, 32, !dbg !1020
  %grid.sroa.0.4.insert.insert = or i64 %grid.sroa.0.0.insert.ext, %grid.sroa.0.4.insert.shift, !dbg !1020
  %cmp37 = icmp sgt i32 %log2N, 11, !dbg !1022
  br i1 %cmp37, label %for.body.lr.ph, label %for.end, !dbg !1022

for.body.lr.ph:                                   ; preds = %entry
  %0 = add i32 %log2N, -12, !dbg !1022
  %1 = and i32 %0, -2, !dbg !1022
  br label %for.body, !dbg !1022

for.body:                                         ; preds = %for.body, %for.body.lr.ph
  %M.addr.040 = phi i32 [ %M, %for.body.lr.ph ], [ %shl4, %for.body ]
  %log2N.addr.039 = phi i32 [ %log2N, %for.body.lr.ph ], [ %sub, %for.body ]
  %N.038 = phi i32 [ %shl, %for.body.lr.ph ], [ %shr, %for.body ]
  tail call void (i64, i32, i64, i32, ...)* @__set_CUDAConfig(i64 %grid.sroa.0.4.insert.insert, i32 1, i64 4294967552, i32 1), !dbg !1024
  %int_cast_to_i641 = zext i32 4 to i64
  call void @klee_div_zero_check(i64 %int_cast_to_i641)
  %div3 = sdiv i32 %N.038, 4, !dbg !1027
  tail call void @_Z15fwtBatch2KernelPfS_i(float* %d_Data, float* %d_Data, i32 %div3), !dbg !1027
  %puts = tail call i32 @puts(i8* getelementptr inbounds ([35 x i8]* @str, i64 0, i64 0)), !dbg !1028
  %sub = add nsw i32 %log2N.addr.039, -2, !dbg !1022
  %shr = ashr i32 %N.038, 2, !dbg !1022
  %shl4 = shl i32 %M.addr.040, 2, !dbg !1022
  %cmp = icmp sgt i32 %sub, 11, !dbg !1022
  br i1 %cmp, label %for.body, label %for.cond.for.end_crit_edge, !dbg !1022

for.cond.for.end_crit_edge:                       ; preds = %for.body
  %2 = add i32 %log2N, -2, !dbg !1022
  %3 = sub i32 %2, %1, !dbg !1022
  br label %for.end, !dbg !1022

for.end:                                          ; preds = %for.cond.for.end_crit_edge, %entry
  %M.addr.0.lcssa = phi i32 [ %shl4, %for.cond.for.end_crit_edge ], [ %M, %entry ]
  %log2N.addr.0.lcssa = phi i32 [ %3, %for.cond.for.end_crit_edge ], [ %log2N, %entry ]
  %N.0.lcssa = phi i32 [ %shr, %for.cond.for.end_crit_edge ], [ %shl, %entry ]
  %agg.tmp5.sroa.0.0.insert.ext = zext i32 %M.addr.0.lcssa to i64, !dbg !1029
  %agg.tmp5.sroa.0.4.insert.insert = or i64 %agg.tmp5.sroa.0.0.insert.ext, 4294967296, !dbg !1029
  %int_cast_to_i642 = zext i32 4 to i64
  call void @klee_div_zero_check(i64 %int_cast_to_i642)
  %div7 = sdiv i32 %N.0.lcssa, 4, !dbg !1031
  %agg.tmp6.sroa.0.0.insert.ext = zext i32 %div7 to i64, !dbg !1029
  %agg.tmp6.sroa.0.4.insert.insert = or i64 %agg.tmp6.sroa.0.0.insert.ext, 4294967296, !dbg !1029
  %conv = sext i32 %N.0.lcssa to i64, !dbg !1031
  %mul = shl nsw i64 %conv, 2, !dbg !1031
  tail call void (i64, i32, i64, i32, ...)* @__set_CUDAConfig(i64 %agg.tmp5.sroa.0.4.insert.insert, i32 1, i64 %agg.tmp6.sroa.0.4.insert.insert, i32 1, i64 %mul), !dbg !1031
  tail call void @_Z15fwtBatch1KernelPfS_i(float* %d_Data, float* %d_Data, i32 %log2N.addr.0.lcssa), !dbg !1033
  %puts36 = tail call i32 @puts(i8* getelementptr inbounds ([35 x i8]* @str17, i64 0, i64 0)), !dbg !1034
  ret void, !dbg !1035
}

declare void @__set_CUDAConfig(i64, i32, i64, i32, ...)

declare i32 @printf(i8* nocapture, ...) nounwind

define void @_Z14modulateKernelPfS_i(float* nocapture %d_A, float* nocapture %d_B, i32 %N) nounwind uwtable noinline {
entry:
  %0 = load i32* getelementptr inbounds (%struct.dim3* @blockIdx, i64 0, i32 0), align 4, !dbg !1036, !tbaa !959
  %1 = load i32* getelementptr inbounds (%struct.dim3* @blockDim, i64 0, i32 0), align 4, !dbg !1036, !tbaa !959
  %mul = mul i32 %1, %0, !dbg !1036
  %2 = load i32* getelementptr inbounds (%struct.dim3* @threadIdx, i64 0, i32 0), align 4, !dbg !1036, !tbaa !959
  %add = add i32 %mul, %2, !dbg !1036
  %3 = load i32* getelementptr inbounds (%struct.dim3* @gridDim, i64 0, i32 0), align 4, !dbg !1037, !tbaa !959
  %mul1 = mul i32 %3, %1, !dbg !1037
  %conv = sitofp i32 %N to float, !dbg !1038
  %div = fdiv float 1.000000e+00, %conv, !dbg !1038
  %cmp11 = icmp slt i32 %add, %N, !dbg !1039
  br i1 %cmp11, label %for.body.lr.ph, label %for.end, !dbg !1039

for.body.lr.ph:                                   ; preds = %entry
  %4 = sext i32 %add to i64
  %5 = sext i32 %mul1 to i64
  br label %for.body, !dbg !1039

for.body:                                         ; preds = %for.body, %for.body.lr.ph
  %indvars.iv = phi i64 [ %4, %for.body.lr.ph ], [ %indvars.iv.next, %for.body ]
  %pos.012 = phi i32 [ %add, %for.body.lr.ph ], [ %add6, %for.body ]
  %arrayidx = getelementptr inbounds float* %d_B, i64 %indvars.iv, !dbg !1040
  %6 = load float* %arrayidx, align 4, !dbg !1040, !tbaa !929
  %mul2 = fmul float %div, %6, !dbg !1040
  %arrayidx4 = getelementptr inbounds float* %d_A, i64 %indvars.iv, !dbg !1040
  %7 = load float* %arrayidx4, align 4, !dbg !1040, !tbaa !929
  %mul5 = fmul float %7, %mul2, !dbg !1040
  store float %mul5, float* %arrayidx4, align 4, !dbg !1040, !tbaa !929
  %add6 = add nsw i32 %pos.012, %mul1, !dbg !1039
  %cmp = icmp slt i32 %add6, %N, !dbg !1039
  %indvars.iv.next = add i64 %indvars.iv, %5, !dbg !1039
  br i1 %cmp, label %for.body, label %for.end, !dbg !1039

for.end:                                          ; preds = %for.body, %entry
  ret void, !dbg !1042
}

define void @_Z11modulateGPUPfS_i(float* nocapture %d_A, float* nocapture %d_B, i32 %N) uwtable {
entry:
  tail call void (i64, i32, i64, i32, ...)* @__set_CUDAConfig(i64 4294967424, i32 1, i64 4294967552, i32 1), !dbg !1043
  tail call void @_Z14modulateKernelPfS_i(float* %d_A, float* %d_B, i32 %N), !dbg !1046
  ret void, !dbg !1047
}

define i32 @main(i32 %argc, i8** nocapture %argv) uwtable {
entry:
  %d_Data = alloca float*, align 8
  %d_Kernel = alloca float*, align 8
  %0 = load i8** %argv, align 8, !dbg !1048, !tbaa !1049
  %call = call i32 (i8*, ...)* @printf(i8* getelementptr inbounds ([17 x i8]* @.str2, i64 0, i64 0), i8* %0), !dbg !1048
  %puts = call i32 @puts(i8* getelementptr inbounds ([21 x i8]* @str18, i64 0, i64 0)), !dbg !1050
  %puts56 = call i32 @puts(i8* getelementptr inbounds ([25 x i8]* @str19, i64 0, i64 0)), !dbg !1051
  %call3 = call noalias i8* @malloc(i64 256) nounwind, !dbg !1052
  %1 = bitcast i8* %call3 to float*, !dbg !1052
  %call4 = call noalias i8* @malloc(i64 16384) nounwind, !dbg !1053
  %call6 = call noalias i8* @malloc(i64 16384) nounwind, !dbg !1054
  %puts57 = call i32 @puts(i8* getelementptr inbounds ([25 x i8]* @str20, i64 0, i64 0)), !dbg !1055
  %2 = bitcast float** %d_Kernel to i8**, !dbg !1056
  %call8 = call i32 @cudaMalloc(i8** %2, i64 16384), !dbg !1056
  %3 = bitcast float** %d_Data to i8**, !dbg !1057
  %call9 = call i32 @cudaMalloc(i8** %3, i64 16384), !dbg !1057
  %puts58 = call i32 @puts(i8* getelementptr inbounds ([19 x i8]* @str21, i64 0, i64 0)), !dbg !1058
  %call11 = call i32 (i8*, ...)* @printf(i8* getelementptr inbounds ([36 x i8]* @.str7, i64 0, i64 0), i32 4096, i32 64), !dbg !1059
  call void @srand(i32 2007) nounwind, !dbg !1060
  br label %for.body, !dbg !1061

for.cond14.preheader:                             ; preds = %for.body
  %4 = bitcast i8* %call4 to float*, !dbg !1053
  br label %for.body16, !dbg !1063

for.body:                                         ; preds = %for.body, %entry
  %indvars.iv66 = phi i64 [ 0, %entry ], [ %indvars.iv.next67, %for.body ]
  %call12 = call i32 @rand() nounwind, !dbg !1065
  %conv = sitofp i32 %call12 to float, !dbg !1065
  %div = fmul float %conv, 0x3E00000000000000, !dbg !1065
  %arrayidx13 = getelementptr inbounds float* %1, i64 %indvars.iv66, !dbg !1065
  store float %div, float* %arrayidx13, align 4, !dbg !1065, !tbaa !929
  %indvars.iv.next67 = add i64 %indvars.iv66, 1, !dbg !1061
  %lftr.wideiv68 = trunc i64 %indvars.iv.next67 to i32, !dbg !1061
  %exitcond69 = icmp eq i32 %lftr.wideiv68, 64, !dbg !1061
  br i1 %exitcond69, label %for.cond14.preheader, label %for.body, !dbg !1061

for.body16:                                       ; preds = %for.body16, %for.cond14.preheader
  %indvars.iv = phi i64 [ 0, %for.cond14.preheader ], [ %indvars.iv.next, %for.body16 ]
  %call17 = call i32 @rand() nounwind, !dbg !1067
  %conv18 = sitofp i32 %call17 to float, !dbg !1067
  %div19 = fmul float %conv18, 0x3E00000000000000, !dbg !1067
  %arrayidx21 = getelementptr inbounds float* %4, i64 %indvars.iv, !dbg !1067
  store float %div19, float* %arrayidx21, align 4, !dbg !1067, !tbaa !929
  %indvars.iv.next = add i64 %indvars.iv, 1, !dbg !1063
  %lftr.wideiv = trunc i64 %indvars.iv.next to i32, !dbg !1063
  %exitcond = icmp eq i32 %lftr.wideiv, 4096, !dbg !1063
  br i1 %exitcond, label %for.end24, label %for.body16, !dbg !1063

for.end24:                                        ; preds = %for.body16
  %5 = load float** %d_Kernel, align 8, !dbg !1069, !tbaa !1049
  %6 = bitcast float* %5 to i8*, !dbg !1069
  %call25 = call i32 @cudaMemset(i8* %6, i32 0, i64 16384), !dbg !1069
  %7 = load float** %d_Kernel, align 8, !dbg !1070, !tbaa !1049
  %8 = bitcast float* %7 to i8*, !dbg !1070
  %call26 = call i32 @cudaMemcpy(i8* %8, i8* %call3, i64 256, i32 1), !dbg !1070
  %9 = load float** %d_Data, align 8, !dbg !1071, !tbaa !1049
  %10 = bitcast float* %9 to i8*, !dbg !1071
  %call27 = call i32 @cudaMemcpy(i8* %10, i8* %call4, i64 16384, i32 1), !dbg !1071
  %puts59 = call i32 @puts(i8* getelementptr inbounds ([61 x i8]* @str22, i64 0, i64 0)), !dbg !1072
  %11 = load float** %d_Data, align 8, !dbg !1073, !tbaa !1049
  call void @_Z11fwtBatchGPUPfii(float* %11, i32 1, i32 12), !dbg !1073
  %12 = load float** %d_Kernel, align 8, !dbg !1074, !tbaa !1049
  call void @_Z11fwtBatchGPUPfii(float* %12, i32 1, i32 12), !dbg !1074
  %13 = load float** %d_Data, align 8, !dbg !1075, !tbaa !1049
  %14 = load float** %d_Kernel, align 8, !dbg !1075, !tbaa !1049
  call void (i64, i32, i64, i32, ...)* @__set_CUDAConfig(i64 4294967424, i32 1, i64 4294967552, i32 1), !dbg !1076
  call void @_Z14modulateKernelPfS_i(float* %13, float* %14, i32 4096), !dbg !1077
  %15 = load float** %d_Data, align 8, !dbg !1078, !tbaa !1049
  call void @_Z11fwtBatchGPUPfii(float* %15, i32 1, i32 12), !dbg !1078
  %call31 = call i32 (i8*, ...)* @printf(i8* getelementptr inbounds ([28 x i8]* @.str9, i64 0, i64 0), double undef, double fdiv (double 7.372800e+04, double fmul (double fmul (double undef, double 1.000000e-03), double 1.000000e+09))), !dbg !1079
  %puts60 = call i32 @puts(i8* getelementptr inbounds ([28 x i8]* @str23, i64 0, i64 0)), !dbg !1080
  %16 = load float** %d_Data, align 8, !dbg !1081, !tbaa !1049
  %17 = bitcast float* %16 to i8*, !dbg !1081
  %call33 = call i32 @cudaMemcpy(i8* %call6, i8* %17, i64 16384, i32 2), !dbg !1081
  %puts61 = call i32 @puts(i8* getelementptr inbounds ([50 x i8]* @str24, i64 0, i64 0)), !dbg !1082
  %puts62 = call i32 @puts(i8* getelementptr inbounds ([25 x i8]* @str25, i64 0, i64 0)), !dbg !1083
  %call37 = call double @sqrt(double 0x7FF8000000000000) nounwind, !dbg !1084
  %puts63 = call i32 @puts(i8* getelementptr inbounds ([17 x i8]* @str26, i64 0, i64 0)), !dbg !1085
  %18 = load float** %d_Data, align 8, !dbg !1086, !tbaa !1049
  %19 = bitcast float* %18 to i8*, !dbg !1086
  %call39 = call i32 @cudaFree(i8* %19), !dbg !1086
  %20 = load float** %d_Kernel, align 8, !dbg !1087, !tbaa !1049
  %21 = bitcast float* %20 to i8*, !dbg !1087
  %call40 = call i32 @cudaFree(i8* %21), !dbg !1087
  call void @free(i8* %call6) nounwind, !dbg !1088
  call void @free(i8* %call4) nounwind, !dbg !1089
  call void @free(i8* %call3) nounwind, !dbg !1090
  %call41 = call i32 (i8*, ...)* @printf(i8* getelementptr inbounds ([13 x i8]* @.str14, i64 0, i64 0), double %call37), !dbg !1091
  %cmp42 = fcmp olt double %call37, 1.000000e-06, !dbg !1092
  %cond = select i1 %cmp42, i8* getelementptr inbounds ([13 x i8]* @.str15, i64 0, i64 0), i8* getelementptr inbounds ([14 x i8]* @.str16, i64 0, i64 0), !dbg !1092
  %call43 = call i32 (i8*, ...)* @printf(i8* %cond), !dbg !1092
  ret i32 0, !dbg !1093
}

declare noalias i8* @malloc(i64) nounwind

declare void @srand(i32) nounwind

declare i32 @rand() nounwind

declare double @sqrt(double) nounwind section "__device__"

declare void @free(i8* nocapture) nounwind

declare i32 @puts(i8* nocapture) nounwind

define void @klee_div_zero_check(i64 %z) nounwind uwtable {
entry:
  %cmp = icmp eq i64 %z, 0, !dbg !1094
  br i1 %cmp, label %if.then, label %if.end, !dbg !1094

if.then:                                          ; preds = %entry
  tail call void @klee_report_error(i8* getelementptr inbounds ([65 x i8]* @.str, i64 0, i64 0), i32 14, i8* getelementptr inbounds ([15 x i8]* @.str1, i64 0, i64 0), i8* getelementptr inbounds ([8 x i8]* @.str21, i64 0, i64 0)) noreturn nounwind, !dbg !
  unreachable, !dbg !1096

if.end:                                           ; preds = %entry
  ret void, !dbg !1097
}

declare void @klee_report_error(i8*, i32, i8*, i8*) noreturn

define i8* @memcpy(i8* %destaddr, i8* nocapture %srcaddr, i64 %len) nounwind uwtable {
entry:
  %cmp3 = icmp eq i64 %len, 0, !dbg !1098
  br i1 %cmp3, label %while.end, label %while.body, !dbg !1098

while.body:                                       ; preds = %while.body, %entry
  %src.06 = phi i8* [ %incdec.ptr, %while.body ], [ %srcaddr, %entry ]
  %dest.05 = phi i8* [ %incdec.ptr1, %while.body ], [ %destaddr, %entry ]
  %len.addr.04 = phi i64 [ %dec, %while.body ], [ %len, %entry ]
  %dec = add i64 %len.addr.04, -1, !dbg !1098
  %incdec.ptr = getelementptr inbounds i8* %src.06, i64 1, !dbg !1099
  %0 = load i8* %src.06, align 1, !dbg !1099, !tbaa !930
  %incdec.ptr1 = getelementptr inbounds i8* %dest.05, i64 1, !dbg !1099
  store i8 %0, i8* %dest.05, align 1, !dbg !1099, !tbaa !930
  %cmp = icmp eq i64 %dec, 0, !dbg !1098
  br i1 %cmp, label %while.end, label %while.body, !dbg !1098

while.end:                                        ; preds = %while.body, %entry
  ret i8* %destaddr, !dbg !1100
}

define i8* @memset(i8* %dst, i32 %s, i64 %count) nounwind uwtable {
entry:
  %cmp2 = icmp eq i64 %count, 0, !dbg !1101
  br i1 %cmp2, label %while.end, label %while.body.lr.ph, !dbg !1101

while.body.lr.ph:                                 ; preds = %entry
  %conv = trunc i32 %s to i8, !dbg !1102
  br label %while.body, !dbg !1101

while.body:                                       ; preds = %while.body, %while.body.lr.ph
  %a.04 = phi i8* [ %dst, %while.body.lr.ph ], [ %incdec.ptr, %while.body ]
  %count.addr.03 = phi i64 [ %count, %while.body.lr.ph ], [ %dec, %while.body ]
  %dec = add i64 %count.addr.03, -1, !dbg !1101
  %incdec.ptr = getelementptr inbounds i8* %a.04, i64 1, !dbg !1102
  store volatile i8 %conv, i8* %a.04, align 1, !dbg !1102, !tbaa !930
  %cmp = icmp eq i64 %dec, 0, !dbg !1101
  br i1 %cmp, label %while.end, label %while.body, !dbg !1101

while.end:                                        ; preds = %while.body, %entry
  ret i8* %dst, !dbg !1103
}

define i32 @cudaArrayGetInfo(%struct.cudaChannelFormatDesc* nocapture %desc, %struct.cudaExtent* nocapture %extent, i32* nocapture %flags, %struct.cudaArray* nocapture %array) nounwind uwtable readnone {
entry:
  ret i32 0, !dbg !1104
}

define i32 @cudaFree(i8* nocapture %devPtr) nounwind uwtable {
entry:
  tail call void @free(i8* %devPtr) nounwind, !dbg !1106
  ret i32 0, !dbg !1108
}

define i32 @cudaFreeArray(%struct.cudaArray* nocapture %array) nounwind uwtable {
entry:
  %0 = bitcast %struct.cudaArray* %array to i8*, !dbg !1109
  tail call void @free(i8* %0) nounwind, !dbg !1109
  ret i32 0, !dbg !1111
}

define i32 @cudaFreeHost(i8* nocapture %ptr) nounwind uwtable {
entry:
  tail call void @free(i8* %ptr) nounwind, !dbg !1112
  ret i32 0, !dbg !1114
}

define i32 @cudaGetSymbolAddress(i8** nocapture %devPtr, i8* nocapture %symbol) nounwind uwtable readnone {
entry:
  ret i32 0, !dbg !1115
}

define i32 @cudaGetSymbolSize(i64* nocapture %size, i8* nocapture %symbol) nounwind uwtable readnone {
entry:
  ret i32 0, !dbg !1117
}

define i32 @cudaHostAlloc(i8** nocapture %pHost, i64 %size, i32 %flags) nounwind uwtable readnone {
entry:
  ret i32 0, !dbg !1119
}

define i32 @cudaHostGetDevicePointer(i8** nocapture %pDevice, i8* nocapture %pHost, i32 %flags) nounwind uwtable readnone {
entry:
  ret i32 0, !dbg !1121
}

define i32 @cudaHostGetFlags(i32* nocapture %pFlags, i8* nocapture %pHost) nounwind uwtable readnone {
entry:
  ret i32 0, !dbg !1123
}

define i32 @cudaHostRegister(i8* nocapture %ptr, i64 %size, i32 %flags) nounwind uwtable readnone {
entry:
  ret i32 0, !dbg !1125
}

define i32 @cudaHostUnregister(i8* nocapture %ptr) nounwind uwtable readnone {
entry:
  ret i32 0, !dbg !1127
}

define i32 @cudaMalloc(i8** nocapture %devPtr, i64 %size) uwtable {
entry:
  tail call void @__set_device(), !dbg !1129
  %call = tail call noalias i8* @malloc(i64 %size) nounwind, !dbg !1131
  store i8* %call, i8** %devPtr, align 8, !dbg !1131, !tbaa !1049
  tail call void @__clear_device(), !dbg !1132
  ret i32 0, !dbg !1133
}

declare void @__set_device()

declare void @__clear_device()

define i32 @cudaMalloc3D(%struct.cudaPitchedPtr* nocapture %pitchedDevPtr, %struct.cudaExtent* nocapture byval align 8 %extent) nounwind uwtable readnone {
entry:
  ret i32 0, !dbg !1134
}

define i32 @cudaMalloc3DArray(%struct.cudaArray** nocapture %array, %struct.cudaChannelFormatDesc* nocapture %desc, %struct.cudaExtent* nocapture byval align 8 %extent, i32 %flags) nounwind uwtable readnone {
entry:
  ret i32 0, !dbg !1136
}

define i32 @cudaMallocArray(%struct.cudaArray** nocapture %array, %struct.cudaChannelFormatDesc* nocapture %desc, i64 %width, i64 %height, i32 %flags) nounwind uwtable readnone {
entry:
  ret i32 0, !dbg !1138
}

define i32 @cudaMallocHost(i8** nocapture %ptr, i64 %size) uwtable {
entry:
  tail call void @__set_host(), !dbg !1140
  %call = tail call noalias i8* @malloc(i64 %size) nounwind, !dbg !1142
  store i8* %call, i8** %ptr, align 8, !dbg !1142, !tbaa !1049
  tail call void @__clear_host(), !dbg !1143
  ret i32 0, !dbg !1144
}

declare void @__set_host()

declare void @__clear_host()

define i32 @cudaMallocPitch(i8** nocapture %devPtr, i64* nocapture %pitch, i64 %width, i64 %height) nounwind uwtable readnone {
entry:
  ret i32 0, !dbg !1145
}

define i32 @cudaMemcpy(i8* nocapture %dst, i8* nocapture %src, i64 %count, i32 %kind) nounwind uwtable {
entry:
  %0 = call i8* @memcpy(i8* %dst, i8* %src, i64 %count)
  ret i32 0, !dbg !1147
}

declare void @llvm.memcpy.p0i8.p0i8.i64(i8* nocapture, i8* nocapture, i64, i32, i1) nounwind

define i32 @cudaMemcpy2D(i8* nocapture %dst, i64 %dpitch, i8* nocapture %src, i64 %spitch, i64 %width, i64 %height, i32 %kind) nounwind uwtable readnone {
entry:
  ret i32 0, !dbg !1149
}

define i32 @cudaMemcpy2DArrayToArray(%struct.cudaArray* nocapture %dst, i64 %wOffsetDst, i64 %hOffsetDst, %struct.cudaArray* nocapture %src, i64 %wOffsetSrc, i64 %hOffsetSrc, i64 %width, i64 %height, i32 %kind) nounwind uwtable readnone {
entry:
  ret i32 0, !dbg !1151
}

define i32 @cudaMemcpy2DAsync(i8* nocapture %dst, i64 %dpitch, i8* nocapture %src, i64 %spitch, i64 %width, i64 %height, i32 %kind, %struct.CUstream_st* nocapture %stream) nounwind uwtable readnone {
entry:
  ret i32 0, !dbg !1153
}

define i32 @cudaMemcpy2DFromArray(i8* nocapture %dst, i64 %dpitch, %struct.cudaArray* nocapture %src, i64 %wOffset, i64 %hOffset, i64 %width, i64 %height, i32 %kind) nounwind uwtable readnone {
entry:
  ret i32 0, !dbg !1155
}

define i32 @cudaMemcpy2DFromArrayAsync(i8* nocapture %dst, i64 %dpitch, %struct.cudaArray* nocapture %src, i64 %wOffset, i64 %hOffset, i64 %width, i64 %height, i32 %kind, %struct.CUstream_st* nocapture %stream) nounwind uwtable readnone {
entry:
  ret i32 0, !dbg !1157
}

define i32 @cudaMemcpy2DToArray(%struct.cudaArray* nocapture %dst, i64 %wOffset, i64 %hOffset, i8* nocapture %src, i64 %spitch, i64 %width, i64 %height, i32 %kind) nounwind uwtable readnone {
entry:
  ret i32 0, !dbg !1159
}

define i32 @cudaMemcpy2DToArrayAsync(%struct.cudaArray* nocapture %dst, i64 %wOffset, i64 %hOffset, i8* nocapture %src, i64 %spitch, i64 %width, i64 %height, i32 %kind, %struct.CUstream_st* nocapture %stream) nounwind uwtable readnone {
entry:
  ret i32 0, !dbg !1161
}

define i32 @cudaMemcpy3D(%struct.cudaMemcpy3DParms* nocapture %p) nounwind uwtable readnone {
entry:
  ret i32 0, !dbg !1163
}

define i32 @cudaMemcpy3DAsync(%struct.cudaMemcpy3DParms* nocapture %p, %struct.CUstream_st* nocapture %stream) nounwind uwtable readnone {
entry:
  ret i32 0, !dbg !1165
}

define i32 @cudaMemcpy3DPeer(%struct.cudaMemcpy3DPeerParms* nocapture %p) nounwind uwtable readnone {
entry:
  ret i32 0, !dbg !1167
}

define i32 @cudaMemcpy3DPeerAsync(%struct.cudaMemcpy3DPeerParms* nocapture %p, %struct.CUstream_st* nocapture %stream) nounwind uwtable readnone {
entry:
  ret i32 0, !dbg !1169
}

define i32 @cudaMemcpyArrayToArray(%struct.cudaArray* nocapture %dst, i64 %wOffsetDst, i64 %hOffsetDst, %struct.cudaArray* nocapture %src, i64 %wOffsetSrc, i64 %hOffsetSrc, i64 %count, i32 %kind) nounwind uwtable readnone {
entry:
  ret i32 0, !dbg !1171
}

define i32 @cudaMemcpyAsync(i8* nocapture %dst, i8* nocapture %src, i64 %count, i32 %kind, %struct.CUstream_st* nocapture %stream) nounwind uwtable readnone {
entry:
  ret i32 0, !dbg !1173
}

define i32 @cudaMemcpyFromArray(i8* nocapture %dst, %struct.cudaArray* nocapture %src, i64 %wOffset, i64 %hOffset, i64 %count, i32 %kind) nounwind uwtable readnone {
entry:
  ret i32 0, !dbg !1175
}

define i32 @cudaMemcpyFromArrayAsync(i8* nocapture %dst, %struct.cudaArray* nocapture %src, i64 %wOffset, i64 %hOffset, i64 %count, i32 %kind, %struct.CUstream_st* nocapture %stream) nounwind uwtable readnone {
entry:
  ret i32 0, !dbg !1177
}

define i32 @cudaMemcpyFromSymbol(i8* nocapture %dst, i8* nocapture %symbol, i64 %count, i64 %offset, i32 %kind) nounwind uwtable readnone {
entry:
  ret i32 0, !dbg !1179
}

define i32 @cudaMemcpyFromSymbolAsync(i8* nocapture %dst, i8* nocapture %symbol, i64 %count, i64 %offset, i32 %kind, %struct.CUstream_st* nocapture %stream) nounwind uwtable readnone {
entry:
  ret i32 0, !dbg !1181
}

define i32 @cudaMemcpyPeer(i8* nocapture %dst, i32 %dstDevice, i8* nocapture %src, i32 %srcDevice, i64 %count) nounwind uwtable {
entry:
  %0 = call i8* @memcpy(i8* %dst, i8* %src, i64 %count)
  ret i32 0, !dbg !1183
}

define i32 @cudaMemcpyPeerAsync(i8* nocapture %dst, i32 %dstDevice, i8* nocapture %src, i32 %srcDevice, i64 %count, %struct.CUstream_st* nocapture %stream) nounwind uwtable {
entry:
  %0 = call i8* @memcpy(i8* %dst, i8* %src, i64 %count)
  ret i32 0, !dbg !1185
}

define i32 @cudaMemcpyToArray(%struct.cudaArray* nocapture %dst, i64 %wOffset, i64 %hOffset, i8* nocapture %src, i64 %count, i32 %kind) nounwind uwtable readnone {
entry:
  ret i32 0, !dbg !1187
}

define i32 @cudaMemcpyToArrayAsync(%struct.cudaArray* nocapture %dst, i64 %wOffset, i64 %hOffset, i8* nocapture %src, i64 %count, i32 %kind, %struct.CUstream_st* nocapture %stream) nounwind uwtable readnone {
entry:
  ret i32 0, !dbg !1189
}

define i32 @cudaMemcpyToSymbol(i8* nocapture %symbol, i8* nocapture %src, i64 %count, i64 %offset, i32 %kind) nounwind uwtable {
entry:
  %add.ptr = getelementptr inbounds i8* %symbol, i64 %offset, !dbg !1191
  %0 = call i8* @memcpy(i8* %add.ptr, i8* %src, i64 %count)
  ret i32 0, !dbg !1193
}

define i32 @cudaMemcpyToSymbolAsync(i8* nocapture %symbol, i8* nocapture %src, i64 %count, i64 %offset, i32 %kind, %struct.CUstream_st* nocapture %stream) nounwind uwtable readnone {
entry:
  ret i32 0, !dbg !1194
}

define i32 @cudaMemGetInfo(i64* nocapture %free, i64* nocapture %total) nounwind uwtable readnone {
entry:
  ret i32 0, !dbg !1196
}

define i32 @cudaMemset(i8* nocapture %devPtr, i32 %value, i64 %count) nounwind uwtable {
entry:
  %0 = trunc i32 %value to i8, !dbg !1198
  %1 = zext i8 %0 to i32
  %2 = call i8* @memset(i8* %devPtr, i32 %1, i64 %count)
  ret i32 0, !dbg !1200
}

define i32 @cudaMemset2D(i8* nocapture %devPtr, i64 %pitch, i32 %value, i64 %width, i64 %height) nounwind uwtable readnone {
entry:
  ret i32 0, !dbg !1201
}

define i32 @cudaMemset2DAsync(i8* nocapture %devPtr, i64 %pitch, i32 %value, i64 %width, i64 %height, %struct.CUstream_st* nocapture %stream) nounwind uwtable readnone {
entry:
  ret i32 0, !dbg !1203
}

define i32 @cudaMemset3D(%struct.cudaPitchedPtr* nocapture byval align 8 %pitchedDevPtr, i32 %value, %struct.cudaExtent* nocapture byval align 8 %extent) nounwind uwtable readnone {
entry:
  ret i32 0, !dbg !1205
}

define i32 @cudaMemset3DAsync(%struct.cudaPitchedPtr* nocapture byval align 8 %pitchedDevPtr, i32 %value, %struct.cudaExtent* nocapture byval align 8 %extent, %struct.CUstream_st* nocapture %stream) nounwind uwtable readnone {
entry:
  ret i32 0, !dbg !1207
}

define i32 @cudaMemsetAsync(i8* nocapture %devPtr, i32 %value, i64 %count, %struct.CUstream_st* nocapture %stream) nounwind uwtable readnone {
entry:
  ret i32 0, !dbg !1209
}

!llvm.dbg.cu = !{!0, !72, !266, !277, !299, !315, !332}

!0 = metadata !{i32 786449, i32 0, i32 4, metadata !"fastWalshTransform_gold.cpp", metadata !"/home/sawaya/Gklee/GkleeTests/SESABench/Table-1-CUDA-5.5/fastWalshTransform", metadata !"clang version 3.2 (tags/RELEASE_32/final)", i1 true, i1 true, metadata 
!1 = metadata !{metadata !2}
!2 = metadata !{i32 0}
!3 = metadata !{metadata !4}
!4 = metadata !{metadata !5, metadata !34, metadata !53}
!5 = metadata !{i32 786478, i32 0, metadata !6, metadata !"fwtCPU", metadata !"fwtCPU", metadata !"", metadata !6, i32 17, metadata !7, i1 false, i1 true, i32 0, i32 0, null, i32 256, i1 true, void (float*, float*, i32)* @fwtCPU, null, null, metadata !12
!6 = metadata !{i32 786473, metadata !"fastWalshTransform_gold.cpp", metadata !"/home/sawaya/Gklee/GkleeTests/SESABench/Table-1-CUDA-5.5/fastWalshTransform", null} ; [ DW_TAG_file_type ]
!7 = metadata !{i32 786453, i32 0, metadata !"", i32 0, i32 0, i64 0, i64 0, i64 0, i32 0, null, metadata !8, i32 0, i32 0} ; [ DW_TAG_subroutine_type ] [line 0, size 0, align 0, offset 0] [from ]
!8 = metadata !{null, metadata !9, metadata !9, metadata !11}
!9 = metadata !{i32 786447, null, metadata !"", null, i32 0, i64 64, i64 64, i64 0, i32 0, metadata !10} ; [ DW_TAG_pointer_type ] [line 0, size 64, align 64, offset 0] [from float]
!10 = metadata !{i32 786468, null, metadata !"float", null, i32 0, i64 32, i64 32, i64 0, i32 0, i32 4} ; [ DW_TAG_base_type ] [float] [line 0, size 32, align 32, offset 0, enc DW_ATE_float]
!11 = metadata !{i32 786468, null, metadata !"int", null, i32 0, i64 32, i64 32, i64 0, i32 0, i32 5} ; [ DW_TAG_base_type ] [int] [line 0, size 32, align 32, offset 0, enc DW_ATE_signed]
!12 = metadata !{metadata !13}
!13 = metadata !{metadata !14, metadata !15, metadata !16, metadata !17, metadata !20, metadata !22, metadata !24, metadata !27, metadata !29, metadata !31, metadata !32, metadata !33}
!14 = metadata !{i32 786689, metadata !5, metadata !"h_Output", metadata !6, i32 16777233, metadata !9, i32 0, i32 0} ; [ DW_TAG_arg_variable ] [h_Output] [line 17]
!15 = metadata !{i32 786689, metadata !5, metadata !"h_Input", metadata !6, i32 33554449, metadata !9, i32 0, i32 0} ; [ DW_TAG_arg_variable ] [h_Input] [line 17]
!16 = metadata !{i32 786689, metadata !5, metadata !"log2N", metadata !6, i32 50331665, metadata !11, i32 0, i32 0} ; [ DW_TAG_arg_variable ] [log2N] [line 17]
!17 = metadata !{i32 786688, metadata !18, metadata !"N", metadata !6, i32 19, metadata !19, i32 0, i32 0} ; [ DW_TAG_auto_variable ] [N] [line 19]
!18 = metadata !{i32 786443, metadata !5, i32 18, i32 0, metadata !6, i32 0} ; [ DW_TAG_lexical_block ] [/home/sawaya/Gklee/GkleeTests/SESABench/Table-1-CUDA-5.5/fastWalshTransform/fastWalshTransform_gold.cpp]
!19 = metadata !{i32 786470, null, metadata !"", null, i32 0, i64 0, i64 0, i64 0, i32 0, metadata !11} ; [ DW_TAG_const_type ] [line 0, size 0, align 0, offset 0] [from int]
!20 = metadata !{i32 786688, metadata !21, metadata !"pos", metadata !6, i32 21, metadata !11, i32 0, i32 0} ; [ DW_TAG_auto_variable ] [pos] [line 21]
!21 = metadata !{i32 786443, metadata !18, i32 21, i32 0, metadata !6, i32 1} ; [ DW_TAG_lexical_block ] [/home/sawaya/Gklee/GkleeTests/SESABench/Table-1-CUDA-5.5/fastWalshTransform/fastWalshTransform_gold.cpp]
!22 = metadata !{i32 786688, metadata !23, metadata !"stride", metadata !6, i32 25, metadata !11, i32 0, i32 0} ; [ DW_TAG_auto_variable ] [stride] [line 25]
!23 = metadata !{i32 786443, metadata !18, i32 25, i32 0, metadata !6, i32 2} ; [ DW_TAG_lexical_block ] [/home/sawaya/Gklee/GkleeTests/SESABench/Table-1-CUDA-5.5/fastWalshTransform/fastWalshTransform_gold.cpp]
!24 = metadata !{i32 786688, metadata !25, metadata !"base", metadata !6, i32 28, metadata !11, i32 0, i32 0} ; [ DW_TAG_auto_variable ] [base] [line 28]
!25 = metadata !{i32 786443, metadata !26, i32 28, i32 0, metadata !6, i32 4} ; [ DW_TAG_lexical_block ] [/home/sawaya/Gklee/GkleeTests/SESABench/Table-1-CUDA-5.5/fastWalshTransform/fastWalshTransform_gold.cpp]
!26 = metadata !{i32 786443, metadata !23, i32 26, i32 0, metadata !6, i32 3} ; [ DW_TAG_lexical_block ] [/home/sawaya/Gklee/GkleeTests/SESABench/Table-1-CUDA-5.5/fastWalshTransform/fastWalshTransform_gold.cpp]
!27 = metadata !{i32 786688, metadata !28, metadata !"j", metadata !6, i32 31, metadata !11, i32 0, i32 0} ; [ DW_TAG_auto_variable ] [j] [line 31]
!28 = metadata !{i32 786443, metadata !25, i32 31, i32 0, metadata !6, i32 5} ; [ DW_TAG_lexical_block ] [/home/sawaya/Gklee/GkleeTests/SESABench/Table-1-CUDA-5.5/fastWalshTransform/fastWalshTransform_gold.cpp]
!29 = metadata !{i32 786688, metadata !30, metadata !"i0", metadata !6, i32 33, metadata !11, i32 0, i32 0} ; [ DW_TAG_auto_variable ] [i0] [line 33]
!30 = metadata !{i32 786443, metadata !28, i32 32, i32 0, metadata !6, i32 6} ; [ DW_TAG_lexical_block ] [/home/sawaya/Gklee/GkleeTests/SESABench/Table-1-CUDA-5.5/fastWalshTransform/fastWalshTransform_gold.cpp]
!31 = metadata !{i32 786688, metadata !30, metadata !"i1", metadata !6, i32 34, metadata !11, i32 0, i32 0} ; [ DW_TAG_auto_variable ] [i1] [line 34]
!32 = metadata !{i32 786688, metadata !30, metadata !"T1", metadata !6, i32 36, metadata !10, i32 0, i32 0} ; [ DW_TAG_auto_variable ] [T1] [line 36]
!33 = metadata !{i32 786688, metadata !30, metadata !"T2", metadata !6, i32 37, metadata !10, i32 0, i32 0} ; [ DW_TAG_auto_variable ] [T2] [line 37]
!34 = metadata !{i32 786478, i32 0, metadata !6, metadata !"slowWTcpu", metadata !"slowWTcpu", metadata !"", metadata !6, i32 50, metadata !7, i1 false, i1 true, i32 0, i32 0, null, i32 256, i1 true, void (float*, float*, i32)* @slowWTcpu, null, null, me
!35 = metadata !{metadata !36}
!36 = metadata !{metadata !37, metadata !38, metadata !39, metadata !40, metadata !42, metadata !44, metadata !47, metadata !49, metadata !51}
!37 = metadata !{i32 786689, metadata !34, metadata !"h_Output", metadata !6, i32 16777266, metadata !9, i32 0, i32 0} ; [ DW_TAG_arg_variable ] [h_Output] [line 50]
!38 = metadata !{i32 786689, metadata !34, metadata !"h_Input", metadata !6, i32 33554482, metadata !9, i32 0, i32 0} ; [ DW_TAG_arg_variable ] [h_Input] [line 50]
!39 = metadata !{i32 786689, metadata !34, metadata !"log2N", metadata !6, i32 50331698, metadata !11, i32 0, i32 0} ; [ DW_TAG_arg_variable ] [log2N] [line 50]
!40 = metadata !{i32 786688, metadata !41, metadata !"N", metadata !6, i32 52, metadata !19, i32 0, i32 0} ; [ DW_TAG_auto_variable ] [N] [line 52]
!41 = metadata !{i32 786443, metadata !34, i32 51, i32 0, metadata !6, i32 7} ; [ DW_TAG_lexical_block ] [/home/sawaya/Gklee/GkleeTests/SESABench/Table-1-CUDA-5.5/fastWalshTransform/fastWalshTransform_gold.cpp]
!42 = metadata !{i32 786688, metadata !43, metadata !"i", metadata !6, i32 54, metadata !11, i32 0, i32 0} ; [ DW_TAG_auto_variable ] [i] [line 54]
!43 = metadata !{i32 786443, metadata !41, i32 54, i32 0, metadata !6, i32 8} ; [ DW_TAG_lexical_block ] [/home/sawaya/Gklee/GkleeTests/SESABench/Table-1-CUDA-5.5/fastWalshTransform/fastWalshTransform_gold.cpp]
!44 = metadata !{i32 786688, metadata !45, metadata !"sum", metadata !6, i32 56, metadata !46, i32 0, i32 0} ; [ DW_TAG_auto_variable ] [sum] [line 56]
!45 = metadata !{i32 786443, metadata !43, i32 55, i32 0, metadata !6, i32 9} ; [ DW_TAG_lexical_block ] [/home/sawaya/Gklee/GkleeTests/SESABench/Table-1-CUDA-5.5/fastWalshTransform/fastWalshTransform_gold.cpp]
!46 = metadata !{i32 786468, null, metadata !"double", null, i32 0, i64 64, i64 64, i64 0, i32 0, i32 4} ; [ DW_TAG_base_type ] [double] [line 0, size 64, align 64, offset 0, enc DW_ATE_float]
!47 = metadata !{i32 786688, metadata !48, metadata !"j", metadata !6, i32 58, metadata !11, i32 0, i32 0} ; [ DW_TAG_auto_variable ] [j] [line 58]
!48 = metadata !{i32 786443, metadata !45, i32 58, i32 0, metadata !6, i32 10} ; [ DW_TAG_lexical_block ] [/home/sawaya/Gklee/GkleeTests/SESABench/Table-1-CUDA-5.5/fastWalshTransform/fastWalshTransform_gold.cpp]
!49 = metadata !{i32 786688, metadata !50, metadata !"q", metadata !6, i32 61, metadata !46, i32 0, i32 0} ; [ DW_TAG_auto_variable ] [q] [line 61]
!50 = metadata !{i32 786443, metadata !48, i32 59, i32 0, metadata !6, i32 11} ; [ DW_TAG_lexical_block ] [/home/sawaya/Gklee/GkleeTests/SESABench/Table-1-CUDA-5.5/fastWalshTransform/fastWalshTransform_gold.cpp]
!51 = metadata !{i32 786688, metadata !52, metadata !"t", metadata !6, i32 63, metadata !11, i32 0, i32 0} ; [ DW_TAG_auto_variable ] [t] [line 63]
!52 = metadata !{i32 786443, metadata !50, i32 63, i32 0, metadata !6, i32 12} ; [ DW_TAG_lexical_block ] [/home/sawaya/Gklee/GkleeTests/SESABench/Table-1-CUDA-5.5/fastWalshTransform/fastWalshTransform_gold.cpp]
!53 = metadata !{i32 786478, i32 0, metadata !6, metadata !"dyadicConvolutionCPU", metadata !"dyadicConvolutionCPU", metadata !"", metadata !6, i32 79, metadata !54, i1 false, i1 true, i32 0, i32 0, null, i32 256, i1 true, void (float*, float*, float*, i
!54 = metadata !{i32 786453, i32 0, metadata !"", i32 0, i32 0, i64 0, i64 0, i64 0, i32 0, null, metadata !55, i32 0, i32 0} ; [ DW_TAG_subroutine_type ] [line 0, size 0, align 0, offset 0] [from ]
!55 = metadata !{null, metadata !9, metadata !9, metadata !9, metadata !11, metadata !11}
!56 = metadata !{metadata !57}
!57 = metadata !{metadata !58, metadata !59, metadata !60, metadata !61, metadata !62, metadata !63, metadata !65, metadata !66, metadata !68, metadata !70}
!58 = metadata !{i32 786689, metadata !53, metadata !"h_Result", metadata !6, i32 16777296, metadata !9, i32 0, i32 0} ; [ DW_TAG_arg_variable ] [h_Result] [line 80]
!59 = metadata !{i32 786689, metadata !53, metadata !"h_Data", metadata !6, i32 33554513, metadata !9, i32 0, i32 0} ; [ DW_TAG_arg_variable ] [h_Data] [line 81]
!60 = metadata !{i32 786689, metadata !53, metadata !"h_Kernel", metadata !6, i32 50331730, metadata !9, i32 0, i32 0} ; [ DW_TAG_arg_variable ] [h_Kernel] [line 82]
!61 = metadata !{i32 786689, metadata !53, metadata !"log2dataN", metadata !6, i32 67108947, metadata !11, i32 0, i32 0} ; [ DW_TAG_arg_variable ] [log2dataN] [line 83]
!62 = metadata !{i32 786689, metadata !53, metadata !"log2kernelN", metadata !6, i32 83886164, metadata !11, i32 0, i32 0} ; [ DW_TAG_arg_variable ] [log2kernelN] [line 84]
!63 = metadata !{i32 786688, metadata !64, metadata !"dataN", metadata !6, i32 87, metadata !19, i32 0, i32 0} ; [ DW_TAG_auto_variable ] [dataN] [line 87]
!64 = metadata !{i32 786443, metadata !53, i32 86, i32 0, metadata !6, i32 13} ; [ DW_TAG_lexical_block ] [/home/sawaya/Gklee/GkleeTests/SESABench/Table-1-CUDA-5.5/fastWalshTransform/fastWalshTransform_gold.cpp]
!65 = metadata !{i32 786688, metadata !64, metadata !"kernelN", metadata !6, i32 88, metadata !19, i32 0, i32 0} ; [ DW_TAG_auto_variable ] [kernelN] [line 88]
!66 = metadata !{i32 786688, metadata !67, metadata !"i", metadata !6, i32 90, metadata !11, i32 0, i32 0} ; [ DW_TAG_auto_variable ] [i] [line 90]
!67 = metadata !{i32 786443, metadata !64, i32 90, i32 0, metadata !6, i32 14} ; [ DW_TAG_lexical_block ] [/home/sawaya/Gklee/GkleeTests/SESABench/Table-1-CUDA-5.5/fastWalshTransform/fastWalshTransform_gold.cpp]
!68 = metadata !{i32 786688, metadata !69, metadata !"sum", metadata !6, i32 92, metadata !46, i32 0, i32 0} ; [ DW_TAG_auto_variable ] [sum] [line 92]
!69 = metadata !{i32 786443, metadata !67, i32 91, i32 0, metadata !6, i32 15} ; [ DW_TAG_lexical_block ] [/home/sawaya/Gklee/GkleeTests/SESABench/Table-1-CUDA-5.5/fastWalshTransform/fastWalshTransform_gold.cpp]
!70 = metadata !{i32 786688, metadata !71, metadata !"j", metadata !6, i32 94, metadata !11, i32 0, i32 0} ; [ DW_TAG_auto_variable ] [j] [line 94]
!71 = metadata !{i32 786443, metadata !69, i32 94, i32 0, metadata !6, i32 16} ; [ DW_TAG_lexical_block ] [/home/sawaya/Gklee/GkleeTests/SESABench/Table-1-CUDA-5.5/fastWalshTransform/fastWalshTransform_gold.cpp]
!72 = metadata !{i32 786449, i32 0, i32 4, metadata !"fastWalshTransform.cpp", metadata !"/home/sawaya/Gklee/GkleeTests/SESABench/Table-1-CUDA-5.5/fastWalshTransform", metadata !"clang version 3.2 (tags/RELEASE_32/final)", i1 true, i1 true, metadata !"",
!73 = metadata !{metadata !74}
!74 = metadata !{metadata !75}
!75 = metadata !{i32 786436, null, metadata !"cudaMemcpyKind", metadata !76, i32 705, i64 32, i64 32, i32 0, i32 0, null, metadata !77, i32 0, i32 0} ; [ DW_TAG_enumeration_type ] [cudaMemcpyKind] [line 705, size 32, align 32, offset 0] [from ]
!76 = metadata !{i32 786473, metadata !"/home/sawaya/Gklee/Gklee/include/cuda/driver_types.h", metadata !"/home/sawaya/Gklee/GkleeTests/SESABench/Table-1-CUDA-5.5/fastWalshTransform", null} ; [ DW_TAG_file_type ]
!77 = metadata !{metadata !78, metadata !79, metadata !80, metadata !81, metadata !82}
!78 = metadata !{i32 786472, metadata !"cudaMemcpyHostToHost", i64 0} ; [ DW_TAG_enumerator ] [cudaMemcpyHostToHost :: 0]
!79 = metadata !{i32 786472, metadata !"cudaMemcpyHostToDevice", i64 1} ; [ DW_TAG_enumerator ] [cudaMemcpyHostToDevice :: 1]
!80 = metadata !{i32 786472, metadata !"cudaMemcpyDeviceToHost", i64 2} ; [ DW_TAG_enumerator ] [cudaMemcpyDeviceToHost :: 2]
!81 = metadata !{i32 786472, metadata !"cudaMemcpyDeviceToDevice", i64 3} ; [ DW_TAG_enumerator ] [cudaMemcpyDeviceToDevice :: 3]
!82 = metadata !{i32 786472, metadata !"cudaMemcpyDefault", i64 4} ; [ DW_TAG_enumerator ] [cudaMemcpyDefault :: 4]
!83 = metadata !{metadata !84}
!84 = metadata !{metadata !85, metadata !123, metadata !144, metadata !199, metadata !211, metadata !217, metadata !241, metadata !249}
!85 = metadata !{i32 786478, i32 0, metadata !86, metadata !"fwtBatch1Kernel", metadata !"fwtBatch1Kernel", metadata !"_Z15fwtBatch1KernelPfS_i", metadata !86, i32 36, metadata !7, i1 false, i1 true, i32 0, i32 0, null, i32 256, i1 true, void (float*, fl
!86 = metadata !{i32 786473, metadata !"fastWalshTransform.cpp", metadata !"/home/sawaya/Gklee/GkleeTests/SESABench/Table-1-CUDA-5.5/fastWalshTransform", null} ; [ DW_TAG_file_type ]
!87 = metadata !{metadata !88}
!88 = metadata !{metadata !89, metadata !90, metadata !91, metadata !92, metadata !94, metadata !95, metadata !96, metadata !97, metadata !99, metadata !100, metadata !102, metadata !104, metadata !105, metadata !106, metadata !107, metadata !108, metada
!89 = metadata !{i32 786689, metadata !85, metadata !"d_Output", metadata !86, i32 16777252, metadata !9, i32 0, i32 0} ; [ DW_TAG_arg_variable ] [d_Output] [line 36]
!90 = metadata !{i32 786689, metadata !85, metadata !"d_Input", metadata !86, i32 33554468, metadata !9, i32 0, i32 0} ; [ DW_TAG_arg_variable ] [d_Input] [line 36]
!91 = metadata !{i32 786689, metadata !85, metadata !"log2N", metadata !86, i32 50331684, metadata !11, i32 0, i32 0} ; [ DW_TAG_arg_variable ] [log2N] [line 36]
!92 = metadata !{i32 786688, metadata !93, metadata !"N", metadata !86, i32 38, metadata !19, i32 0, i32 0} ; [ DW_TAG_auto_variable ] [N] [line 38]
!93 = metadata !{i32 786443, metadata !85, i32 37, i32 0, metadata !86, i32 0} ; [ DW_TAG_lexical_block ] [/home/sawaya/Gklee/GkleeTests/SESABench/Table-1-CUDA-5.5/fastWalshTransform/fastWalshTransform.cpp]
!94 = metadata !{i32 786688, metadata !93, metadata !"base", metadata !86, i32 39, metadata !19, i32 0, i32 0} ; [ DW_TAG_auto_variable ] [base] [line 39]
!95 = metadata !{i32 786688, metadata !93, metadata !"d_Src", metadata !86, i32 42, metadata !9, i32 0, i32 0} ; [ DW_TAG_auto_variable ] [d_Src] [line 42]
!96 = metadata !{i32 786688, metadata !93, metadata !"d_Dst", metadata !86, i32 43, metadata !9, i32 0, i32 0} ; [ DW_TAG_auto_variable ] [d_Dst] [line 43]
!97 = metadata !{i32 786688, metadata !98, metadata !"pos", metadata !86, i32 45, metadata !11, i32 0, i32 0} ; [ DW_TAG_auto_variable ] [pos] [line 45]
!98 = metadata !{i32 786443, metadata !93, i32 45, i32 0, metadata !86, i32 1} ; [ DW_TAG_lexical_block ] [/home/sawaya/Gklee/GkleeTests/SESABench/Table-1-CUDA-5.5/fastWalshTransform/fastWalshTransform.cpp]
!99 = metadata !{i32 786688, metadata !93, metadata !"pos", metadata !86, i32 51, metadata !19, i32 0, i32 0} ; [ DW_TAG_auto_variable ] [pos] [line 51]
!100 = metadata !{i32 786688, metadata !101, metadata !"stride", metadata !86, i32 53, metadata !11, i32 0, i32 0} ; [ DW_TAG_auto_variable ] [stride] [line 53]
!101 = metadata !{i32 786443, metadata !93, i32 53, i32 0, metadata !86, i32 3} ; [ DW_TAG_lexical_block ] [/home/sawaya/Gklee/GkleeTests/SESABench/Table-1-CUDA-5.5/fastWalshTransform/fastWalshTransform.cpp]
!102 = metadata !{i32 786688, metadata !103, metadata !"lo", metadata !86, i32 55, metadata !11, i32 0, i32 0} ; [ DW_TAG_auto_variable ] [lo] [line 55]
!103 = metadata !{i32 786443, metadata !101, i32 54, i32 0, metadata !86, i32 4} ; [ DW_TAG_lexical_block ] [/home/sawaya/Gklee/GkleeTests/SESABench/Table-1-CUDA-5.5/fastWalshTransform/fastWalshTransform.cpp]
!104 = metadata !{i32 786688, metadata !103, metadata !"i0", metadata !86, i32 56, metadata !11, i32 0, i32 0} ; [ DW_TAG_auto_variable ] [i0] [line 56]
!105 = metadata !{i32 786688, metadata !103, metadata !"i1", metadata !86, i32 57, metadata !11, i32 0, i32 0} ; [ DW_TAG_auto_variable ] [i1] [line 57]
!106 = metadata !{i32 786688, metadata !103, metadata !"i2", metadata !86, i32 58, metadata !11, i32 0, i32 0} ; [ DW_TAG_auto_variable ] [i2] [line 58]
!107 = metadata !{i32 786688, metadata !103, metadata !"i3", metadata !86, i32 59, metadata !11, i32 0, i32 0} ; [ DW_TAG_auto_variable ] [i3] [line 59]
!108 = metadata !{i32 786688, metadata !103, metadata !"D0", metadata !86, i32 62, metadata !10, i32 0, i32 0} ; [ DW_TAG_auto_variable ] [D0] [line 62]
!109 = metadata !{i32 786688, metadata !103, metadata !"D1", metadata !86, i32 63, metadata !10, i32 0, i32 0} ; [ DW_TAG_auto_variable ] [D1] [line 63]
!110 = metadata !{i32 786688, metadata !103, metadata !"D2", metadata !86, i32 64, metadata !10, i32 0, i32 0} ; [ DW_TAG_auto_variable ] [D2] [line 64]
!111 = metadata !{i32 786688, metadata !103, metadata !"D3", metadata !86, i32 65, metadata !10, i32 0, i32 0} ; [ DW_TAG_auto_variable ] [D3] [line 65]
!112 = metadata !{i32 786688, metadata !103, metadata !"T", metadata !86, i32 67, metadata !10, i32 0, i32 0} ; [ DW_TAG_auto_variable ] [T] [line 67]
!113 = metadata !{i32 786688, metadata !114, metadata !"pos", metadata !86, i32 87, metadata !11, i32 0, i32 0} ; [ DW_TAG_auto_variable ] [pos] [line 87]
!114 = metadata !{i32 786443, metadata !115, i32 87, i32 0, metadata !86, i32 6} ; [ DW_TAG_lexical_block ] [/home/sawaya/Gklee/GkleeTests/SESABench/Table-1-CUDA-5.5/fastWalshTransform/fastWalshTransform.cpp]
!115 = metadata !{i32 786443, metadata !93, i32 84, i32 0, metadata !86, i32 5} ; [ DW_TAG_lexical_block ] [/home/sawaya/Gklee/GkleeTests/SESABench/Table-1-CUDA-5.5/fastWalshTransform/fastWalshTransform.cpp]
!116 = metadata !{i32 786688, metadata !117, metadata !"i0", metadata !86, i32 89, metadata !11, i32 0, i32 0} ; [ DW_TAG_auto_variable ] [i0] [line 89]
!117 = metadata !{i32 786443, metadata !114, i32 88, i32 0, metadata !86, i32 7} ; [ DW_TAG_lexical_block ] [/home/sawaya/Gklee/GkleeTests/SESABench/Table-1-CUDA-5.5/fastWalshTransform/fastWalshTransform.cpp]
!118 = metadata !{i32 786688, metadata !117, metadata !"i1", metadata !86, i32 90, metadata !11, i32 0, i32 0} ; [ DW_TAG_auto_variable ] [i1] [line 90]
!119 = metadata !{i32 786688, metadata !117, metadata !"D0", metadata !86, i32 92, metadata !10, i32 0, i32 0} ; [ DW_TAG_auto_variable ] [D0] [line 92]
!120 = metadata !{i32 786688, metadata !117, metadata !"D1", metadata !86, i32 93, metadata !10, i32 0, i32 0} ; [ DW_TAG_auto_variable ] [D1] [line 93]
!121 = metadata !{i32 786688, metadata !122, metadata !"pos", metadata !86, i32 101, metadata !11, i32 0, i32 0} ; [ DW_TAG_auto_variable ] [pos] [line 101]
!122 = metadata !{i32 786443, metadata !93, i32 101, i32 0, metadata !86, i32 8} ; [ DW_TAG_lexical_block ] [/home/sawaya/Gklee/GkleeTests/SESABench/Table-1-CUDA-5.5/fastWalshTransform/fastWalshTransform.cpp]
!123 = metadata !{i32 786478, i32 0, metadata !86, metadata !"fwtBatch2Kernel", metadata !"fwtBatch2Kernel", metadata !"_Z15fwtBatch2KernelPfS_i", metadata !86, i32 111, metadata !7, i1 false, i1 true, i32 0, i32 0, null, i32 256, i1 true, void (float*, 
!124 = metadata !{metadata !125}
!125 = metadata !{metadata !126, metadata !127, metadata !128, metadata !129, metadata !131, metadata !132, metadata !133, metadata !134, metadata !135, metadata !136, metadata !137, metadata !138, metadata !139, metadata !140, metadata !141, metadata !1
!126 = metadata !{i32 786689, metadata !123, metadata !"d_Output", metadata !86, i32 16777328, metadata !9, i32 0, i32 0} ; [ DW_TAG_arg_variable ] [d_Output] [line 112]
!127 = metadata !{i32 786689, metadata !123, metadata !"d_Input", metadata !86, i32 33554545, metadata !9, i32 0, i32 0} ; [ DW_TAG_arg_variable ] [d_Input] [line 113]
!128 = metadata !{i32 786689, metadata !123, metadata !"stride", metadata !86, i32 50331762, metadata !11, i32 0, i32 0} ; [ DW_TAG_arg_variable ] [stride] [line 114]
!129 = metadata !{i32 786688, metadata !130, metadata !"pos", metadata !86, i32 117, metadata !19, i32 0, i32 0} ; [ DW_TAG_auto_variable ] [pos] [line 117]
!130 = metadata !{i32 786443, metadata !123, i32 116, i32 0, metadata !86, i32 10} ; [ DW_TAG_lexical_block ] [/home/sawaya/Gklee/GkleeTests/SESABench/Table-1-CUDA-5.5/fastWalshTransform/fastWalshTransform.cpp]
!131 = metadata !{i32 786688, metadata !130, metadata !"N", metadata !86, i32 118, metadata !19, i32 0, i32 0} ; [ DW_TAG_auto_variable ] [N] [line 118]
!132 = metadata !{i32 786688, metadata !130, metadata !"d_Src", metadata !86, i32 120, metadata !9, i32 0, i32 0} ; [ DW_TAG_auto_variable ] [d_Src] [line 120]
!133 = metadata !{i32 786688, metadata !130, metadata !"d_Dst", metadata !86, i32 121, metadata !9, i32 0, i32 0} ; [ DW_TAG_auto_variable ] [d_Dst] [line 121]
!134 = metadata !{i32 786688, metadata !130, metadata !"lo", metadata !86, i32 123, metadata !11, i32 0, i32 0} ; [ DW_TAG_auto_variable ] [lo] [line 123]
!135 = metadata !{i32 786688, metadata !130, metadata !"i0", metadata !86, i32 124, metadata !11, i32 0, i32 0} ; [ DW_TAG_auto_variable ] [i0] [line 124]
!136 = metadata !{i32 786688, metadata !130, metadata !"i1", metadata !86, i32 125, metadata !11, i32 0, i32 0} ; [ DW_TAG_auto_variable ] [i1] [line 125]
!137 = metadata !{i32 786688, metadata !130, metadata !"i2", metadata !86, i32 126, metadata !11, i32 0, i32 0} ; [ DW_TAG_auto_variable ] [i2] [line 126]
!138 = metadata !{i32 786688, metadata !130, metadata !"i3", metadata !86, i32 127, metadata !11, i32 0, i32 0} ; [ DW_TAG_auto_variable ] [i3] [line 127]
!139 = metadata !{i32 786688, metadata !130, metadata !"D0", metadata !86, i32 129, metadata !10, i32 0, i32 0} ; [ DW_TAG_auto_variable ] [D0] [line 129]
!140 = metadata !{i32 786688, metadata !130, metadata !"D1", metadata !86, i32 130, metadata !10, i32 0, i32 0} ; [ DW_TAG_auto_variable ] [D1] [line 130]
!141 = metadata !{i32 786688, metadata !130, metadata !"D2", metadata !86, i32 131, metadata !10, i32 0, i32 0} ; [ DW_TAG_auto_variable ] [D2] [line 131]
!142 = metadata !{i32 786688, metadata !130, metadata !"D3", metadata !86, i32 132, metadata !10, i32 0, i32 0} ; [ DW_TAG_auto_variable ] [D3] [line 132]
!143 = metadata !{i32 786688, metadata !130, metadata !"T", metadata !86, i32 134, metadata !10, i32 0, i32 0} ; [ DW_TAG_auto_variable ] [T] [line 134]
!144 = metadata !{i32 786478, i32 0, metadata !86, metadata !"fwtBatchGPU", metadata !"fwtBatchGPU", metadata !"_Z11fwtBatchGPUPfii", metadata !86, i32 152, metadata !145, i1 false, i1 true, i32 0, i32 0, null, i32 256, i1 true, void (float*, i32, i32)* 
!145 = metadata !{i32 786453, i32 0, metadata !"", i32 0, i32 0, i64 0, i64 0, i64 0, i32 0, null, metadata !146, i32 0, i32 0} ; [ DW_TAG_subroutine_type ] [line 0, size 0, align 0, offset 0] [from ]
!146 = metadata !{null, metadata !9, metadata !11, metadata !11}
!147 = metadata !{metadata !148}
!148 = metadata !{metadata !149, metadata !150, metadata !151, metadata !152, metadata !154, metadata !155}
!149 = metadata !{i32 786689, metadata !144, metadata !"d_Data", metadata !86, i32 16777368, metadata !9, i32 0, i32 0} ; [ DW_TAG_arg_variable ] [d_Data] [line 152]
!150 = metadata !{i32 786689, metadata !144, metadata !"M", metadata !86, i32 33554584, metadata !11, i32 0, i32 0} ; [ DW_TAG_arg_variable ] [M] [line 152]
!151 = metadata !{i32 786689, metadata !144, metadata !"log2N", metadata !86, i32 50331800, metadata !11, i32 0, i32 0} ; [ DW_TAG_arg_variable ] [log2N] [line 152]
!152 = metadata !{i32 786688, metadata !153, metadata !"THREAD_N", metadata !86, i32 154, metadata !19, i32 0, i32 0} ; [ DW_TAG_auto_variable ] [THREAD_N] [line 154]
!153 = metadata !{i32 786443, metadata !144, i32 153, i32 0, metadata !86, i32 11} ; [ DW_TAG_lexical_block ] [/home/sawaya/Gklee/GkleeTests/SESABench/Table-1-CUDA-5.5/fastWalshTransform/fastWalshTransform.cpp]
!154 = metadata !{i32 786688, metadata !153, metadata !"N", metadata !86, i32 156, metadata !11, i32 0, i32 0} ; [ DW_TAG_auto_variable ] [N] [line 156]
!155 = metadata !{i32 786688, metadata !153, metadata !"grid", metadata !86, i32 157, metadata !156, i32 0, i32 0} ; [ DW_TAG_auto_variable ] [grid] [line 157]
!156 = metadata !{i32 786454, null, metadata !"dim3", metadata !86, i32 425, i64 0, i64 0, i64 0, i32 0, metadata !157} ; [ DW_TAG_typedef ] [dim3] [line 425, size 0, align 0, offset 0] [from dim3]
!157 = metadata !{i32 786451, null, metadata !"dim3", metadata !158, i32 415, i64 96, i64 32, i32 0, i32 0, null, metadata !159, i32 0, null, null} ; [ DW_TAG_structure_type ] [dim3] [line 415, size 96, align 32, offset 0] [from ]
!158 = metadata !{i32 786473, metadata !"/home/sawaya/Gklee/Gklee/include/cuda/vector_types.h", metadata !"/home/sawaya/Gklee/GkleeTests/SESABench/Table-1-CUDA-5.5/fastWalshTransform", null} ; [ DW_TAG_file_type ]
!159 = metadata !{metadata !160, metadata !162, metadata !163, metadata !164, metadata !170, metadata !188, metadata !191, metadata !196}
!160 = metadata !{i32 786445, metadata !157, metadata !"x", metadata !158, i32 417, i64 32, i64 32, i64 0, i32 0, metadata !161} ; [ DW_TAG_member ] [x] [line 417, size 32, align 32, offset 0] [from unsigned int]
!161 = metadata !{i32 786468, null, metadata !"unsigned int", null, i32 0, i64 32, i64 32, i64 0, i32 0, i32 7} ; [ DW_TAG_base_type ] [unsigned int] [line 0, size 32, align 32, offset 0, enc DW_ATE_unsigned]
!162 = metadata !{i32 786445, metadata !157, metadata !"y", metadata !158, i32 417, i64 32, i64 32, i64 32, i32 0, metadata !161} ; [ DW_TAG_member ] [y] [line 417, size 32, align 32, offset 32] [from unsigned int]
!163 = metadata !{i32 786445, metadata !157, metadata !"z", metadata !158, i32 417, i64 32, i64 32, i64 64, i32 0, metadata !161} ; [ DW_TAG_member ] [z] [line 417, size 32, align 32, offset 64] [from unsigned int]
!164 = metadata !{i32 786478, i32 0, metadata !157, metadata !"dim3", metadata !"dim3", metadata !"", metadata !158, i32 419, metadata !165, i1 false, i1 false, i32 0, i32 0, null, i32 256, i1 true, null, null, i32 0, metadata !168, i32 419} ; [ DW_TAG_s
!165 = metadata !{i32 786453, i32 0, metadata !"", i32 0, i32 0, i64 0, i64 0, i64 0, i32 0, null, metadata !166, i32 0, i32 0} ; [ DW_TAG_subroutine_type ] [line 0, size 0, align 0, offset 0] [from ]
!166 = metadata !{null, metadata !167, metadata !161, metadata !161, metadata !161}
!167 = metadata !{i32 786447, i32 0, metadata !"", i32 0, i32 0, i64 64, i64 64, i64 0, i32 1088, metadata !157} ; [ DW_TAG_pointer_type ] [line 0, size 64, align 64, offset 0] [from dim3]
!168 = metadata !{metadata !169}
!169 = metadata !{i32 786468}                     ; [ DW_TAG_base_type ] [line 0, size 0, align 0, offset 0]
!170 = metadata !{i32 786478, i32 0, metadata !157, metadata !"dim3", metadata !"dim3", metadata !"", metadata !158, i32 420, metadata !171, i1 false, i1 false, i32 0, i32 0, null, i32 256, i1 true, null, null, i32 0, metadata !168, i32 420} ; [ DW_TAG_s
!171 = metadata !{i32 786453, i32 0, metadata !"", i32 0, i32 0, i64 0, i64 0, i64 0, i32 0, null, metadata !172, i32 0, i32 0} ; [ DW_TAG_subroutine_type ] [line 0, size 0, align 0, offset 0] [from ]
!172 = metadata !{null, metadata !167, metadata !173}
!173 = metadata !{i32 786454, null, metadata !"uint3", metadata !158, i32 381, i64 0, i64 0, i64 0, i32 0, metadata !174} ; [ DW_TAG_typedef ] [uint3] [line 381, size 0, align 0, offset 0] [from uint3]
!174 = metadata !{i32 786451, null, metadata !"uint3", metadata !158, i32 188, i64 96, i64 32, i32 0, i32 0, null, metadata !175, i32 0, null, null} ; [ DW_TAG_structure_type ] [uint3] [line 188, size 96, align 32, offset 0] [from ]
!175 = metadata !{metadata !176, metadata !177, metadata !178, metadata !179, metadata !183}
!176 = metadata !{i32 786445, metadata !174, metadata !"x", metadata !158, i32 190, i64 32, i64 32, i64 0, i32 0, metadata !161} ; [ DW_TAG_member ] [x] [line 190, size 32, align 32, offset 0] [from unsigned int]
!177 = metadata !{i32 786445, metadata !174, metadata !"y", metadata !158, i32 190, i64 32, i64 32, i64 32, i32 0, metadata !161} ; [ DW_TAG_member ] [y] [line 190, size 32, align 32, offset 32] [from unsigned int]
!178 = metadata !{i32 786445, metadata !174, metadata !"z", metadata !158, i32 190, i64 32, i64 32, i64 64, i32 0, metadata !161} ; [ DW_TAG_member ] [z] [line 190, size 32, align 32, offset 64] [from unsigned int]
!179 = metadata !{i32 786478, i32 0, metadata !174, metadata !"uint3", metadata !"uint3", metadata !"", metadata !158, i32 188, metadata !180, i1 false, i1 false, i32 0, i32 0, null, i32 320, i1 true, null, null, i32 0, metadata !168, i32 188} ; [ DW_TAG
!180 = metadata !{i32 786453, i32 0, metadata !"", i32 0, i32 0, i64 0, i64 0, i64 0, i32 0, null, metadata !181, i32 0, i32 0} ; [ DW_TAG_subroutine_type ] [line 0, size 0, align 0, offset 0] [from ]
!181 = metadata !{null, metadata !182}
!182 = metadata !{i32 786447, i32 0, metadata !"", i32 0, i32 0, i64 64, i64 64, i64 0, i32 1088, metadata !174} ; [ DW_TAG_pointer_type ] [line 0, size 64, align 64, offset 0] [from uint3]
!183 = metadata !{i32 786478, i32 0, metadata !174, metadata !"uint3", metadata !"uint3", metadata !"", metadata !158, i32 188, metadata !184, i1 false, i1 false, i32 0, i32 0, null, i32 320, i1 true, null, null, i32 0, metadata !168, i32 188} ; [ DW_TAG
!184 = metadata !{i32 786453, i32 0, metadata !"", i32 0, i32 0, i64 0, i64 0, i64 0, i32 0, null, metadata !185, i32 0, i32 0} ; [ DW_TAG_subroutine_type ] [line 0, size 0, align 0, offset 0] [from ]
!185 = metadata !{null, metadata !182, metadata !186}
!186 = metadata !{i32 786448, null, null, null, i32 0, i64 0, i64 0, i64 0, i32 0, metadata !187} ; [ DW_TAG_reference_type ] [line 0, size 0, align 0, offset 0] [from ]
!187 = metadata !{i32 786470, null, metadata !"", null, i32 0, i64 0, i64 0, i64 0, i32 0, metadata !174} ; [ DW_TAG_const_type ] [line 0, size 0, align 0, offset 0] [from uint3]
!188 = metadata !{i32 786478, i32 0, metadata !157, metadata !"operator uint3", metadata !"operator uint3", metadata !"_ZN4dim3cv5uint3Ev", metadata !158, i32 421, metadata !189, i1 false, i1 false, i32 0, i32 0, null, i32 256, i1 true, null, null, i32 0
!189 = metadata !{i32 786453, i32 0, metadata !"", i32 0, i32 0, i64 0, i64 0, i64 0, i32 0, null, metadata !190, i32 0, i32 0} ; [ DW_TAG_subroutine_type ] [line 0, size 0, align 0, offset 0] [from ]
!190 = metadata !{metadata !173, metadata !167}
!191 = metadata !{i32 786478, i32 0, metadata !157, metadata !"dim3", metadata !"dim3", metadata !"", metadata !158, i32 415, metadata !192, i1 false, i1 false, i32 0, i32 0, null, i32 320, i1 true, null, null, i32 0, metadata !168, i32 415} ; [ DW_TAG_s
!192 = metadata !{i32 786453, i32 0, metadata !"", i32 0, i32 0, i64 0, i64 0, i64 0, i32 0, null, metadata !193, i32 0, i32 0} ; [ DW_TAG_subroutine_type ] [line 0, size 0, align 0, offset 0] [from ]
!193 = metadata !{null, metadata !167, metadata !194}
!194 = metadata !{i32 786448, null, null, null, i32 0, i64 0, i64 0, i64 0, i32 0, metadata !195} ; [ DW_TAG_reference_type ] [line 0, size 0, align 0, offset 0] [from ]
!195 = metadata !{i32 786470, null, metadata !"", null, i32 0, i64 0, i64 0, i64 0, i32 0, metadata !157} ; [ DW_TAG_const_type ] [line 0, size 0, align 0, offset 0] [from dim3]
!196 = metadata !{i32 786478, i32 0, metadata !157, metadata !"~dim3", metadata !"~dim3", metadata !"", metadata !158, i32 415, metadata !197, i1 false, i1 false, i32 0, i32 0, null, i32 320, i1 true, null, null, i32 0, metadata !168, i32 415} ; [ DW_TAG
!197 = metadata !{i32 786453, i32 0, metadata !"", i32 0, i32 0, i64 0, i64 0, i64 0, i32 0, null, metadata !198, i32 0, i32 0} ; [ DW_TAG_subroutine_type ] [line 0, size 0, align 0, offset 0] [from ]
!198 = metadata !{null, metadata !167}
!199 = metadata !{i32 786478, i32 0, metadata !86, metadata !"modulateKernel", metadata !"modulateKernel", metadata !"_Z14modulateKernelPfS_i", metadata !86, i32 189, metadata !7, i1 false, i1 true, i32 0, i32 0, null, i32 256, i1 true, void (float*, flo
!200 = metadata !{metadata !201}
!201 = metadata !{metadata !202, metadata !203, metadata !204, metadata !205, metadata !207, metadata !208, metadata !209}
!202 = metadata !{i32 786689, metadata !199, metadata !"d_A", metadata !86, i32 16777405, metadata !9, i32 0, i32 0} ; [ DW_TAG_arg_variable ] [d_A] [line 189]
!203 = metadata !{i32 786689, metadata !199, metadata !"d_B", metadata !86, i32 33554621, metadata !9, i32 0, i32 0} ; [ DW_TAG_arg_variable ] [d_B] [line 189]
!204 = metadata !{i32 786689, metadata !199, metadata !"N", metadata !86, i32 50331837, metadata !11, i32 0, i32 0} ; [ DW_TAG_arg_variable ] [N] [line 189]
!205 = metadata !{i32 786688, metadata !206, metadata !"tid", metadata !86, i32 191, metadata !11, i32 0, i32 0} ; [ DW_TAG_auto_variable ] [tid] [line 191]
!206 = metadata !{i32 786443, metadata !199, i32 190, i32 0, metadata !86, i32 16} ; [ DW_TAG_lexical_block ] [/home/sawaya/Gklee/GkleeTests/SESABench/Table-1-CUDA-5.5/fastWalshTransform/fastWalshTransform.cpp]
!207 = metadata !{i32 786688, metadata !206, metadata !"numThreads", metadata !86, i32 192, metadata !11, i32 0, i32 0} ; [ DW_TAG_auto_variable ] [numThreads] [line 192]
!208 = metadata !{i32 786688, metadata !206, metadata !"rcpN", metadata !86, i32 193, metadata !10, i32 0, i32 0} ; [ DW_TAG_auto_variable ] [rcpN] [line 193]
!209 = metadata !{i32 786688, metadata !210, metadata !"pos", metadata !86, i32 195, metadata !11, i32 0, i32 0} ; [ DW_TAG_auto_variable ] [pos] [line 195]
!210 = metadata !{i32 786443, metadata !206, i32 195, i32 0, metadata !86, i32 17} ; [ DW_TAG_lexical_block ] [/home/sawaya/Gklee/GkleeTests/SESABench/Table-1-CUDA-5.5/fastWalshTransform/fastWalshTransform.cpp]
!211 = metadata !{i32 786478, i32 0, metadata !86, metadata !"modulateGPU", metadata !"modulateGPU", metadata !"_Z11modulateGPUPfS_i", metadata !86, i32 202, metadata !7, i1 false, i1 true, i32 0, i32 0, null, i32 256, i1 true, void (float*, float*, i32)
!212 = metadata !{metadata !213}
!213 = metadata !{metadata !214, metadata !215, metadata !216}
!214 = metadata !{i32 786689, metadata !211, metadata !"d_A", metadata !86, i32 16777418, metadata !9, i32 0, i32 0} ; [ DW_TAG_arg_variable ] [d_A] [line 202]
!215 = metadata !{i32 786689, metadata !211, metadata !"d_B", metadata !86, i32 33554634, metadata !9, i32 0, i32 0} ; [ DW_TAG_arg_variable ] [d_B] [line 202]
!216 = metadata !{i32 786689, metadata !211, metadata !"N", metadata !86, i32 50331850, metadata !11, i32 0, i32 0} ; [ DW_TAG_arg_variable ] [N] [line 202]
!217 = metadata !{i32 786478, i32 0, metadata !86, metadata !"main", metadata !"main", metadata !"", metadata !86, i32 232, metadata !218, i1 false, i1 true, i32 0, i32 0, null, i32 256, i1 true, i32 (i32, i8**)* @main, null, null, metadata !223, i32 233
!218 = metadata !{i32 786453, i32 0, metadata !"", i32 0, i32 0, i64 0, i64 0, i64 0, i32 0, null, metadata !219, i32 0, i32 0} ; [ DW_TAG_subroutine_type ] [line 0, size 0, align 0, offset 0] [from ]
!219 = metadata !{metadata !11, metadata !11, metadata !220}
!220 = metadata !{i32 786447, null, metadata !"", null, i32 0, i64 64, i64 64, i64 0, i32 0, metadata !221} ; [ DW_TAG_pointer_type ] [line 0, size 64, align 64, offset 0] [from ]
!221 = metadata !{i32 786447, null, metadata !"", null, i32 0, i64 64, i64 64, i64 0, i32 0, metadata !222} ; [ DW_TAG_pointer_type ] [line 0, size 64, align 64, offset 0] [from char]
!222 = metadata !{i32 786468, null, metadata !"char", null, i32 0, i64 8, i64 8, i64 0, i32 0, i32 6} ; [ DW_TAG_base_type ] [char] [line 0, size 8, align 8, offset 0, enc DW_ATE_signed_char]
!223 = metadata !{metadata !224}
!224 = metadata !{metadata !225, metadata !226, metadata !227, metadata !229, metadata !230, metadata !231, metadata !232, metadata !233, metadata !234, metadata !235, metadata !236, metadata !237, metadata !238, metadata !239, metadata !240}
!225 = metadata !{i32 786689, metadata !217, metadata !"argc", metadata !86, i32 16777448, metadata !11, i32 0, i32 0} ; [ DW_TAG_arg_variable ] [argc] [line 232]
!226 = metadata !{i32 786689, metadata !217, metadata !"argv", metadata !86, i32 33554664, metadata !220, i32 0, i32 0} ; [ DW_TAG_arg_variable ] [argv] [line 232]
!227 = metadata !{i32 786688, metadata !228, metadata !"h_Data", metadata !86, i32 234, metadata !9, i32 0, i32 0} ; [ DW_TAG_auto_variable ] [h_Data] [line 234]
!228 = metadata !{i32 786443, metadata !217, i32 233, i32 0, metadata !86, i32 21} ; [ DW_TAG_lexical_block ] [/home/sawaya/Gklee/GkleeTests/SESABench/Table-1-CUDA-5.5/fastWalshTransform/fastWalshTransform.cpp]
!229 = metadata !{i32 786688, metadata !228, metadata !"h_Kernel", metadata !86, i32 235, metadata !9, i32 0, i32 0} ; [ DW_TAG_auto_variable ] [h_Kernel] [line 235]
!230 = metadata !{i32 786688, metadata !228, metadata !"h_ResultCPU", metadata !86, i32 236, metadata !9, i32 0, i32 0} ; [ DW_TAG_auto_variable ] [h_ResultCPU] [line 236]
!231 = metadata !{i32 786688, metadata !228, metadata !"h_ResultGPU", metadata !86, i32 237, metadata !9, i32 0, i32 0} ; [ DW_TAG_auto_variable ] [h_ResultGPU] [line 237]
!232 = metadata !{i32 786688, metadata !228, metadata !"d_Data", metadata !86, i32 239, metadata !9, i32 0, i32 0} ; [ DW_TAG_auto_variable ] [d_Data] [line 239]
!233 = metadata !{i32 786688, metadata !228, metadata !"d_Kernel", metadata !86, i32 240, metadata !9, i32 0, i32 0} ; [ DW_TAG_auto_variable ] [d_Kernel] [line 240]
!234 = metadata !{i32 786688, metadata !228, metadata !"delta", metadata !86, i32 242, metadata !46, i32 0, i32 0} ; [ DW_TAG_auto_variable ] [delta] [line 242]
!235 = metadata !{i32 786688, metadata !228, metadata !"ref", metadata !86, i32 242, metadata !46, i32 0, i32 0} ; [ DW_TAG_auto_variable ] [ref] [line 242]
!236 = metadata !{i32 786688, metadata !228, metadata !"sum_delta2", metadata !86, i32 242, metadata !46, i32 0, i32 0} ; [ DW_TAG_auto_variable ] [sum_delta2] [line 242]
!237 = metadata !{i32 786688, metadata !228, metadata !"sum_ref2", metadata !86, i32 242, metadata !46, i32 0, i32 0} ; [ DW_TAG_auto_variable ] [sum_ref2] [line 242]
!238 = metadata !{i32 786688, metadata !228, metadata !"L2norm", metadata !86, i32 242, metadata !46, i32 0, i32 0} ; [ DW_TAG_auto_variable ] [L2norm] [line 242]
!239 = metadata !{i32 786688, metadata !228, metadata !"gpuTime", metadata !86, i32 242, metadata !46, i32 0, i32 0} ; [ DW_TAG_auto_variable ] [gpuTime] [line 242]
!240 = metadata !{i32 786688, metadata !228, metadata !"i", metadata !86, i32 245, metadata !11, i32 0, i32 0} ; [ DW_TAG_auto_variable ] [i] [line 245]
!241 = metadata !{i32 786478, i32 0, null, metadata !"dim3", metadata !"dim3", metadata !"_ZN4dim3C1Ejjj", metadata !158, i32 419, metadata !165, i1 false, i1 true, i32 0, i32 0, null, i32 256, i1 true, null, null, metadata !164, metadata !242, i32 419} 
!242 = metadata !{metadata !243}
!243 = metadata !{metadata !244, metadata !246, metadata !247, metadata !248}
!244 = metadata !{i32 786689, metadata !241, metadata !"this", metadata !158, i32 16777635, metadata !245, i32 1088, i32 0} ; [ DW_TAG_arg_variable ] [this] [line 419]
!245 = metadata !{i32 786447, null, metadata !"", null, i32 0, i64 64, i64 64, i64 0, i32 0, metadata !157} ; [ DW_TAG_pointer_type ] [line 0, size 64, align 64, offset 0] [from dim3]
!246 = metadata !{i32 786689, metadata !241, metadata !"vx", metadata !158, i32 33554851, metadata !161, i32 0, i32 0} ; [ DW_TAG_arg_variable ] [vx] [line 419]
!247 = metadata !{i32 786689, metadata !241, metadata !"vy", metadata !158, i32 50332067, metadata !161, i32 0, i32 0} ; [ DW_TAG_arg_variable ] [vy] [line 419]
!248 = metadata !{i32 786689, metadata !241, metadata !"vz", metadata !158, i32 67109283, metadata !161, i32 0, i32 0} ; [ DW_TAG_arg_variable ] [vz] [line 419]
!249 = metadata !{i32 786478, i32 0, null, metadata !"dim3", metadata !"dim3", metadata !"_ZN4dim3C2Ejjj", metadata !158, i32 419, metadata !165, i1 false, i1 true, i32 0, i32 0, null, i32 256, i1 true, null, null, metadata !164, metadata !250, i32 419} 
!250 = metadata !{metadata !251}
!251 = metadata !{metadata !252, metadata !253, metadata !254, metadata !255}
!252 = metadata !{i32 786689, metadata !249, metadata !"this", metadata !158, i32 16777635, metadata !245, i32 1088, i32 0} ; [ DW_TAG_arg_variable ] [this] [line 419]
!253 = metadata !{i32 786689, metadata !249, metadata !"vx", metadata !158, i32 33554851, metadata !161, i32 0, i32 0} ; [ DW_TAG_arg_variable ] [vx] [line 419]
!254 = metadata !{i32 786689, metadata !249, metadata !"vy", metadata !158, i32 50332067, metadata !161, i32 0, i32 0} ; [ DW_TAG_arg_variable ] [vy] [line 419]
!255 = metadata !{i32 786689, metadata !249, metadata !"vz", metadata !158, i32 67109283, metadata !161, i32 0, i32 0} ; [ DW_TAG_arg_variable ] [vz] [line 419]
!256 = metadata !{metadata !257}
!257 = metadata !{metadata !258, metadata !258, metadata !259, metadata !260, metadata !260, metadata !260, metadata !260, metadata !260, metadata !261, metadata !262, metadata !262, metadata !261, metadata !260, metadata !259, metadata !260, metadata !2
!258 = metadata !{i32 786484, i32 0, metadata !86, metadata !"THREAD_N", metadata !"THREAD_N", metadata !"THREAD_N", metadata !86, i32 154, metadata !19, i32 1, i32 1, i32 256} ; [ DW_TAG_variable ] [THREAD_N] [line 154] [local] [def]
!259 = metadata !{i32 786484, i32 0, metadata !86, metadata !"KERNEL_SIZE", metadata !"KERNEL_SIZE", metadata !"KERNEL_SIZE", metadata !86, i32 223, metadata !19, i32 1, i32 1, i32 256} ; [ DW_TAG_variable ] [KERNEL_SIZE] [line 223] [local] [def]
!260 = metadata !{i32 786484, i32 0, metadata !86, metadata !"DATA_SIZE", metadata !"DATA_SIZE", metadata !"DATA_SIZE", metadata !86, i32 222, metadata !19, i32 1, i32 1, i32 16384} ; [ DW_TAG_variable ] [DATA_SIZE] [line 222] [local] [def]
!261 = metadata !{i32 786484, i32 0, metadata !86, metadata !"dataN", metadata !"dataN", metadata !"dataN", metadata !86, i32 219, metadata !19, i32 1, i32 1, i32 4096} ; [ DW_TAG_variable ] [dataN] [line 219] [local] [def]
!262 = metadata !{i32 786484, i32 0, metadata !86, metadata !"kernelN", metadata !"kernelN", metadata !"kernelN", metadata !86, i32 220, metadata !19, i32 1, i32 1, i32 64} ; [ DW_TAG_variable ] [kernelN] [line 220] [local] [def]
!263 = metadata !{i32 786484, i32 0, metadata !86, metadata !"log2Data", metadata !"log2Data", metadata !"log2Data", metadata !86, i32 217, metadata !19, i32 1, i32 1, i32 12} ; [ DW_TAG_variable ] [log2Data] [line 217] [local] [def]
!264 = metadata !{i32 786484, i32 0, metadata !86, metadata !"NOPS", metadata !"NOPS", metadata !"NOPS", metadata !86, i32 225, metadata !265, i32 1, i32 1, double 7.372800e+04} ; [ DW_TAG_variable ] [NOPS] [line 225] [local] [def]
!265 = metadata !{i32 786470, null, metadata !"", null, i32 0, i64 0, i64 0, i64 0, i32 0, metadata !46} ; [ DW_TAG_const_type ] [line 0, size 0, align 0, offset 0] [from double]
!266 = metadata !{i32 786449, i32 0, i32 1, metadata !"/home/sawaya/Gklee/Gklee/runtime/Intrinsic/klee_div_zero_check.c", metadata !"/home/sawaya/Gklee/build/Gklee/runtime/Intrinsic", metadata !"clang version 3.2 (tags/RELEASE_32/final)", i1 true, i1 tru
!267 = metadata !{metadata !268}
!268 = metadata !{metadata !269}
!269 = metadata !{i32 786478, i32 0, metadata !270, metadata !"klee_div_zero_check", metadata !"klee_div_zero_check", metadata !"", metadata !270, i32 12, metadata !271, i1 false, i1 true, i32 0, i32 0, null, i32 256, i1 true, void (i64)* @klee_div_zero_
!270 = metadata !{i32 786473, metadata !"/home/sawaya/Gklee/Gklee/runtime/Intrinsic/klee_div_zero_check.c", metadata !"/home/sawaya/Gklee/build/Gklee/runtime/Intrinsic", null} ; [ DW_TAG_file_type ]
!271 = metadata !{i32 786453, i32 0, metadata !"", i32 0, i32 0, i64 0, i64 0, i64 0, i32 0, null, metadata !272, i32 0, i32 0} ; [ DW_TAG_subroutine_type ] [line 0, size 0, align 0, offset 0] [from ]
!272 = metadata !{null, metadata !273}
!273 = metadata !{i32 786468, null, metadata !"long long int", null, i32 0, i64 64, i64 64, i64 0, i32 0, i32 5} ; [ DW_TAG_base_type ] [long long int] [line 0, size 64, align 64, offset 0, enc DW_ATE_signed]
!274 = metadata !{metadata !275}
!275 = metadata !{metadata !276}
!276 = metadata !{i32 786689, metadata !269, metadata !"z", metadata !270, i32 16777228, metadata !273, i32 0, i32 0} ; [ DW_TAG_arg_variable ] [z] [line 12]
!277 = metadata !{i32 786449, i32 0, i32 1, metadata !"/home/sawaya/Gklee/Gklee/runtime/Intrinsic/memcpy.c", metadata !"/home/sawaya/Gklee/build/Gklee/runtime/Intrinsic", metadata !"clang version 3.2 (tags/RELEASE_32/final)", i1 true, i1 true, metadata !
!278 = metadata !{metadata !279}
!279 = metadata !{metadata !280}
!280 = metadata !{i32 786478, i32 0, metadata !281, metadata !"memcpy", metadata !"memcpy", metadata !"", metadata !281, i32 12, metadata !282, i1 false, i1 true, i32 0, i32 0, null, i32 256, i1 true, i8* (i8*, i8*, i64)* @memcpy, null, null, metadata !2
!281 = metadata !{i32 786473, metadata !"/home/sawaya/Gklee/Gklee/runtime/Intrinsic/memcpy.c", metadata !"/home/sawaya/Gklee/build/Gklee/runtime/Intrinsic", null} ; [ DW_TAG_file_type ]
!282 = metadata !{i32 786453, i32 0, metadata !"", i32 0, i32 0, i64 0, i64 0, i64 0, i32 0, null, metadata !283, i32 0, i32 0} ; [ DW_TAG_subroutine_type ] [line 0, size 0, align 0, offset 0] [from ]
!283 = metadata !{metadata !284, metadata !284, metadata !285, metadata !287}
!284 = metadata !{i32 786447, null, metadata !"", null, i32 0, i64 64, i64 64, i64 0, i32 0, null} ; [ DW_TAG_pointer_type ] [line 0, size 64, align 64, offset 0] [from ]
!285 = metadata !{i32 786447, null, metadata !"", null, i32 0, i64 64, i64 64, i64 0, i32 0, metadata !286} ; [ DW_TAG_pointer_type ] [line 0, size 64, align 64, offset 0] [from ]
!286 = metadata !{i32 786470, null, metadata !"", null, i32 0, i64 0, i64 0, i64 0, i32 0, null} ; [ DW_TAG_const_type ] [line 0, size 0, align 0, offset 0] [from ]
!287 = metadata !{i32 786454, null, metadata !"size_t", metadata !281, i32 35, i64 0, i64 0, i64 0, i32 0, metadata !288} ; [ DW_TAG_typedef ] [size_t] [line 35, size 0, align 0, offset 0] [from long unsigned int]
!288 = metadata !{i32 786468, null, metadata !"long unsigned int", null, i32 0, i64 64, i64 64, i64 0, i32 0, i32 7} ; [ DW_TAG_base_type ] [long unsigned int] [line 0, size 64, align 64, offset 0, enc DW_ATE_unsigned]
!289 = metadata !{metadata !290}
!290 = metadata !{metadata !291, metadata !292, metadata !293, metadata !294, metadata !296}
!291 = metadata !{i32 786689, metadata !280, metadata !"destaddr", metadata !281, i32 16777228, metadata !284, i32 0, i32 0} ; [ DW_TAG_arg_variable ] [destaddr] [line 12]
!292 = metadata !{i32 786689, metadata !280, metadata !"srcaddr", metadata !281, i32 33554444, metadata !285, i32 0, i32 0} ; [ DW_TAG_arg_variable ] [srcaddr] [line 12]
!293 = metadata !{i32 786689, metadata !280, metadata !"len", metadata !281, i32 50331660, metadata !287, i32 0, i32 0} ; [ DW_TAG_arg_variable ] [len] [line 12]
!294 = metadata !{i32 786688, metadata !295, metadata !"dest", metadata !281, i32 13, metadata !221, i32 0, i32 0} ; [ DW_TAG_auto_variable ] [dest] [line 13]
!295 = metadata !{i32 786443, metadata !280, i32 12, i32 0, metadata !281, i32 0} ; [ DW_TAG_lexical_block ] [/home/sawaya/Gklee/build/Gklee/runtime/Intrinsic//home/sawaya/Gklee/Gklee/runtime/Intrinsic/memcpy.c]
!296 = metadata !{i32 786688, metadata !295, metadata !"src", metadata !281, i32 14, metadata !297, i32 0, i32 0} ; [ DW_TAG_auto_variable ] [src] [line 14]
!297 = metadata !{i32 786447, null, metadata !"", null, i32 0, i64 64, i64 64, i64 0, i32 0, metadata !298} ; [ DW_TAG_pointer_type ] [line 0, size 64, align 64, offset 0] [from ]
!298 = metadata !{i32 786470, null, metadata !"", null, i32 0, i64 0, i64 0, i64 0, i32 0, metadata !222} ; [ DW_TAG_const_type ] [line 0, size 0, align 0, offset 0] [from char]
!299 = metadata !{i32 786449, i32 0, i32 1, metadata !"/home/sawaya/Gklee/Gklee/runtime/Intrinsic/memmove.c", metadata !"/home/sawaya/Gklee/build/Gklee/runtime/Intrinsic", metadata !"clang version 3.2 (tags/RELEASE_32/final)", i1 true, i1 true, metadata 
!300 = metadata !{metadata !301}
!301 = metadata !{metadata !302}
!302 = metadata !{i32 786478, i32 0, metadata !303, metadata !"memmove", metadata !"memmove", metadata !"", metadata !303, i32 12, metadata !304, i1 false, i1 true, i32 0, i32 0, null, i32 256, i1 true, null, null, null, metadata !307, i32 12} ; [ DW_TAG
!303 = metadata !{i32 786473, metadata !"/home/sawaya/Gklee/Gklee/runtime/Intrinsic/memmove.c", metadata !"/home/sawaya/Gklee/build/Gklee/runtime/Intrinsic", null} ; [ DW_TAG_file_type ]
!304 = metadata !{i32 786453, i32 0, metadata !"", i32 0, i32 0, i64 0, i64 0, i64 0, i32 0, null, metadata !305, i32 0, i32 0} ; [ DW_TAG_subroutine_type ] [line 0, size 0, align 0, offset 0] [from ]
!305 = metadata !{metadata !284, metadata !284, metadata !285, metadata !306}
!306 = metadata !{i32 786454, null, metadata !"size_t", metadata !303, i32 35, i64 0, i64 0, i64 0, i32 0, metadata !288} ; [ DW_TAG_typedef ] [size_t] [line 35, size 0, align 0, offset 0] [from long unsigned int]
!307 = metadata !{metadata !308}
!308 = metadata !{metadata !309, metadata !310, metadata !311, metadata !312, metadata !314}
!309 = metadata !{i32 786689, metadata !302, metadata !"dst", metadata !303, i32 16777228, metadata !284, i32 0, i32 0} ; [ DW_TAG_arg_variable ] [dst] [line 12]
!310 = metadata !{i32 786689, metadata !302, metadata !"src", metadata !303, i32 33554444, metadata !285, i32 0, i32 0} ; [ DW_TAG_arg_variable ] [src] [line 12]
!311 = metadata !{i32 786689, metadata !302, metadata !"count", metadata !303, i32 50331660, metadata !306, i32 0, i32 0} ; [ DW_TAG_arg_variable ] [count] [line 12]
!312 = metadata !{i32 786688, metadata !313, metadata !"a", metadata !303, i32 14, metadata !221, i32 0, i32 0} ; [ DW_TAG_auto_variable ] [a] [line 14]
!313 = metadata !{i32 786443, metadata !302, i32 12, i32 0, metadata !303, i32 0} ; [ DW_TAG_lexical_block ] [/home/sawaya/Gklee/build/Gklee/runtime/Intrinsic//home/sawaya/Gklee/Gklee/runtime/Intrinsic/memmove.c]
!314 = metadata !{i32 786688, metadata !313, metadata !"b", metadata !303, i32 15, metadata !297, i32 0, i32 0} ; [ DW_TAG_auto_variable ] [b] [line 15]
!315 = metadata !{i32 786449, i32 0, i32 1, metadata !"/home/sawaya/Gklee/Gklee/runtime/Intrinsic/memset.c", metadata !"/home/sawaya/Gklee/build/Gklee/runtime/Intrinsic", metadata !"clang version 3.2 (tags/RELEASE_32/final)", i1 true, i1 true, metadata !
!316 = metadata !{metadata !317}
!317 = metadata !{metadata !318}
!318 = metadata !{i32 786478, i32 0, metadata !319, metadata !"memset", metadata !"memset", metadata !"", metadata !319, i32 12, metadata !320, i1 false, i1 true, i32 0, i32 0, null, i32 256, i1 true, i8* (i8*, i32, i64)* @memset, null, null, metadata !3
!319 = metadata !{i32 786473, metadata !"/home/sawaya/Gklee/Gklee/runtime/Intrinsic/memset.c", metadata !"/home/sawaya/Gklee/build/Gklee/runtime/Intrinsic", null} ; [ DW_TAG_file_type ]
!320 = metadata !{i32 786453, i32 0, metadata !"", i32 0, i32 0, i64 0, i64 0, i64 0, i32 0, null, metadata !321, i32 0, i32 0} ; [ DW_TAG_subroutine_type ] [line 0, size 0, align 0, offset 0] [from ]
!321 = metadata !{metadata !284, metadata !284, metadata !11, metadata !322}
!322 = metadata !{i32 786454, null, metadata !"size_t", metadata !319, i32 35, i64 0, i64 0, i64 0, i32 0, metadata !288} ; [ DW_TAG_typedef ] [size_t] [line 35, size 0, align 0, offset 0] [from long unsigned int]
!323 = metadata !{metadata !324}
!324 = metadata !{metadata !325, metadata !326, metadata !327, metadata !328}
!325 = metadata !{i32 786689, metadata !318, metadata !"dst", metadata !319, i32 16777228, metadata !284, i32 0, i32 0} ; [ DW_TAG_arg_variable ] [dst] [line 12]
!326 = metadata !{i32 786689, metadata !318, metadata !"s", metadata !319, i32 33554444, metadata !11, i32 0, i32 0} ; [ DW_TAG_arg_variable ] [s] [line 12]
!327 = metadata !{i32 786689, metadata !318, metadata !"count", metadata !319, i32 50331660, metadata !322, i32 0, i32 0} ; [ DW_TAG_arg_variable ] [count] [line 12]
!328 = metadata !{i32 786688, metadata !329, metadata !"a", metadata !319, i32 13, metadata !330, i32 0, i32 0} ; [ DW_TAG_auto_variable ] [a] [line 13]
!329 = metadata !{i32 786443, metadata !318, i32 12, i32 0, metadata !319, i32 0} ; [ DW_TAG_lexical_block ] [/home/sawaya/Gklee/build/Gklee/runtime/Intrinsic//home/sawaya/Gklee/Gklee/runtime/Intrinsic/memset.c]
!330 = metadata !{i32 786447, null, metadata !"", null, i32 0, i64 64, i64 64, i64 0, i32 0, metadata !331} ; [ DW_TAG_pointer_type ] [line 0, size 64, align 64, offset 0] [from ]
!331 = metadata !{i32 786485, null, metadata !"", null, i32 0, i64 0, i64 0, i64 0, i32 0, metadata !222} ; [ DW_TAG_volatile_type ] [line 0, size 0, align 0, offset 0] [from char]
!332 = metadata !{i32 786449, i32 0, i32 4, metadata !"/home/sawaya/Gklee/Gklee/runtime/CudaRuntime/cudaMemManage.cpp", metadata !"/home/sawaya/Gklee/build/Gklee/runtime/CudaRuntime", metadata !"clang version 3.2 (tags/RELEASE_32/final)", i1 true, i1 tru
!333 = metadata !{metadata !334}
!334 = metadata !{metadata !335, metadata !410, metadata !416}
!335 = metadata !{i32 786436, null, metadata !"cudaError", metadata !336, i32 124, i64 32, i64 32, i32 0, i32 0, null, metadata !337, i32 0, i32 0} ; [ DW_TAG_enumeration_type ] [cudaError] [line 124, size 32, align 32, offset 0] [from ]
!336 = metadata !{i32 786473, metadata !"/home/sawaya/Gklee/Gklee/include/cuda/driver_types.h", metadata !"/home/sawaya/Gklee/build/Gklee/runtime/CudaRuntime", null} ; [ DW_TAG_file_type ]
!337 = metadata !{metadata !338, metadata !339, metadata !340, metadata !341, metadata !342, metadata !343, metadata !344, metadata !345, metadata !346, metadata !347, metadata !348, metadata !349, metadata !350, metadata !351, metadata !352, metadata !3
!338 = metadata !{i32 786472, metadata !"cudaSuccess", i64 0} ; [ DW_TAG_enumerator ] [cudaSuccess :: 0]
!339 = metadata !{i32 786472, metadata !"cudaErrorMissingConfiguration", i64 1} ; [ DW_TAG_enumerator ] [cudaErrorMissingConfiguration :: 1]
!340 = metadata !{i32 786472, metadata !"cudaErrorMemoryAllocation", i64 2} ; [ DW_TAG_enumerator ] [cudaErrorMemoryAllocation :: 2]
!341 = metadata !{i32 786472, metadata !"cudaErrorInitializationError", i64 3} ; [ DW_TAG_enumerator ] [cudaErrorInitializationError :: 3]
!342 = metadata !{i32 786472, metadata !"cudaErrorLaunchFailure", i64 4} ; [ DW_TAG_enumerator ] [cudaErrorLaunchFailure :: 4]
!343 = metadata !{i32 786472, metadata !"cudaErrorPriorLaunchFailure", i64 5} ; [ DW_TAG_enumerator ] [cudaErrorPriorLaunchFailure :: 5]
!344 = metadata !{i32 786472, metadata !"cudaErrorLaunchTimeout", i64 6} ; [ DW_TAG_enumerator ] [cudaErrorLaunchTimeout :: 6]
!345 = metadata !{i32 786472, metadata !"cudaErrorLaunchOutOfResources", i64 7} ; [ DW_TAG_enumerator ] [cudaErrorLaunchOutOfResources :: 7]
!346 = metadata !{i32 786472, metadata !"cudaErrorInvalidDeviceFunction", i64 8} ; [ DW_TAG_enumerator ] [cudaErrorInvalidDeviceFunction :: 8]
!347 = metadata !{i32 786472, metadata !"cudaErrorInvalidConfiguration", i64 9} ; [ DW_TAG_enumerator ] [cudaErrorInvalidConfiguration :: 9]
!348 = metadata !{i32 786472, metadata !"cudaErrorInvalidDevice", i64 10} ; [ DW_TAG_enumerator ] [cudaErrorInvalidDevice :: 10]
!349 = metadata !{i32 786472, metadata !"cudaErrorInvalidValue", i64 11} ; [ DW_TAG_enumerator ] [cudaErrorInvalidValue :: 11]
!350 = metadata !{i32 786472, metadata !"cudaErrorInvalidPitchValue", i64 12} ; [ DW_TAG_enumerator ] [cudaErrorInvalidPitchValue :: 12]
!351 = metadata !{i32 786472, metadata !"cudaErrorInvalidSymbol", i64 13} ; [ DW_TAG_enumerator ] [cudaErrorInvalidSymbol :: 13]
!352 = metadata !{i32 786472, metadata !"cudaErrorMapBufferObjectFailed", i64 14} ; [ DW_TAG_enumerator ] [cudaErrorMapBufferObjectFailed :: 14]
!353 = metadata !{i32 786472, metadata !"cudaErrorUnmapBufferObjectFailed", i64 15} ; [ DW_TAG_enumerator ] [cudaErrorUnmapBufferObjectFailed :: 15]
!354 = metadata !{i32 786472, metadata !"cudaErrorInvalidHostPointer", i64 16} ; [ DW_TAG_enumerator ] [cudaErrorInvalidHostPointer :: 16]
!355 = metadata !{i32 786472, metadata !"cudaErrorInvalidDevicePointer", i64 17} ; [ DW_TAG_enumerator ] [cudaErrorInvalidDevicePointer :: 17]
!356 = metadata !{i32 786472, metadata !"cudaErrorInvalidTexture", i64 18} ; [ DW_TAG_enumerator ] [cudaErrorInvalidTexture :: 18]
!357 = metadata !{i32 786472, metadata !"cudaErrorInvalidTextureBinding", i64 19} ; [ DW_TAG_enumerator ] [cudaErrorInvalidTextureBinding :: 19]
!358 = metadata !{i32 786472, metadata !"cudaErrorInvalidChannelDescriptor", i64 20} ; [ DW_TAG_enumerator ] [cudaErrorInvalidChannelDescriptor :: 20]
!359 = metadata !{i32 786472, metadata !"cudaErrorInvalidMemcpyDirection", i64 21} ; [ DW_TAG_enumerator ] [cudaErrorInvalidMemcpyDirection :: 21]
!360 = metadata !{i32 786472, metadata !"cudaErrorAddressOfConstant", i64 22} ; [ DW_TAG_enumerator ] [cudaErrorAddressOfConstant :: 22]
!361 = metadata !{i32 786472, metadata !"cudaErrorTextureFetchFailed", i64 23} ; [ DW_TAG_enumerator ] [cudaErrorTextureFetchFailed :: 23]
!362 = metadata !{i32 786472, metadata !"cudaErrorTextureNotBound", i64 24} ; [ DW_TAG_enumerator ] [cudaErrorTextureNotBound :: 24]
!363 = metadata !{i32 786472, metadata !"cudaErrorSynchronizationError", i64 25} ; [ DW_TAG_enumerator ] [cudaErrorSynchronizationError :: 25]
!364 = metadata !{i32 786472, metadata !"cudaErrorInvalidFilterSetting", i64 26} ; [ DW_TAG_enumerator ] [cudaErrorInvalidFilterSetting :: 26]
!365 = metadata !{i32 786472, metadata !"cudaErrorInvalidNormSetting", i64 27} ; [ DW_TAG_enumerator ] [cudaErrorInvalidNormSetting :: 27]
!366 = metadata !{i32 786472, metadata !"cudaErrorMixedDeviceExecution", i64 28} ; [ DW_TAG_enumerator ] [cudaErrorMixedDeviceExecution :: 28]
!367 = metadata !{i32 786472, metadata !"cudaErrorCudartUnloading", i64 29} ; [ DW_TAG_enumerator ] [cudaErrorCudartUnloading :: 29]
!368 = metadata !{i32 786472, metadata !"cudaErrorUnknown", i64 30} ; [ DW_TAG_enumerator ] [cudaErrorUnknown :: 30]
!369 = metadata !{i32 786472, metadata !"cudaErrorNotYetImplemented", i64 31} ; [ DW_TAG_enumerator ] [cudaErrorNotYetImplemented :: 31]
!370 = metadata !{i32 786472, metadata !"cudaErrorMemoryValueTooLarge", i64 32} ; [ DW_TAG_enumerator ] [cudaErrorMemoryValueTooLarge :: 32]
!371 = metadata !{i32 786472, metadata !"cudaErrorInvalidResourceHandle", i64 33} ; [ DW_TAG_enumerator ] [cudaErrorInvalidResourceHandle :: 33]
!372 = metadata !{i32 786472, metadata !"cudaErrorNotReady", i64 34} ; [ DW_TAG_enumerator ] [cudaErrorNotReady :: 34]
!373 = metadata !{i32 786472, metadata !"cudaErrorInsufficientDriver", i64 35} ; [ DW_TAG_enumerator ] [cudaErrorInsufficientDriver :: 35]
!374 = metadata !{i32 786472, metadata !"cudaErrorSetOnActiveProcess", i64 36} ; [ DW_TAG_enumerator ] [cudaErrorSetOnActiveProcess :: 36]
!375 = metadata !{i32 786472, metadata !"cudaErrorInvalidSurface", i64 37} ; [ DW_TAG_enumerator ] [cudaErrorInvalidSurface :: 37]
!376 = metadata !{i32 786472, metadata !"cudaErrorNoDevice", i64 38} ; [ DW_TAG_enumerator ] [cudaErrorNoDevice :: 38]
!377 = metadata !{i32 786472, metadata !"cudaErrorECCUncorrectable", i64 39} ; [ DW_TAG_enumerator ] [cudaErrorECCUncorrectable :: 39]
!378 = metadata !{i32 786472, metadata !"cudaErrorSharedObjectSymbolNotFound", i64 40} ; [ DW_TAG_enumerator ] [cudaErrorSharedObjectSymbolNotFound :: 40]
!379 = metadata !{i32 786472, metadata !"cudaErrorSharedObjectInitFailed", i64 41} ; [ DW_TAG_enumerator ] [cudaErrorSharedObjectInitFailed :: 41]
!380 = metadata !{i32 786472, metadata !"cudaErrorUnsupportedLimit", i64 42} ; [ DW_TAG_enumerator ] [cudaErrorUnsupportedLimit :: 42]
!381 = metadata !{i32 786472, metadata !"cudaErrorDuplicateVariableName", i64 43} ; [ DW_TAG_enumerator ] [cudaErrorDuplicateVariableName :: 43]
!382 = metadata !{i32 786472, metadata !"cudaErrorDuplicateTextureName", i64 44} ; [ DW_TAG_enumerator ] [cudaErrorDuplicateTextureName :: 44]
!383 = metadata !{i32 786472, metadata !"cudaErrorDuplicateSurfaceName", i64 45} ; [ DW_TAG_enumerator ] [cudaErrorDuplicateSurfaceName :: 45]
!384 = metadata !{i32 786472, metadata !"cudaErrorDevicesUnavailable", i64 46} ; [ DW_TAG_enumerator ] [cudaErrorDevicesUnavailable :: 46]
!385 = metadata !{i32 786472, metadata !"cudaErrorInvalidKernelImage", i64 47} ; [ DW_TAG_enumerator ] [cudaErrorInvalidKernelImage :: 47]
!386 = metadata !{i32 786472, metadata !"cudaErrorNoKernelImageForDevice", i64 48} ; [ DW_TAG_enumerator ] [cudaErrorNoKernelImageForDevice :: 48]
!387 = metadata !{i32 786472, metadata !"cudaErrorIncompatibleDriverContext", i64 49} ; [ DW_TAG_enumerator ] [cudaErrorIncompatibleDriverContext :: 49]
!388 = metadata !{i32 786472, metadata !"cudaErrorPeerAccessAlreadyEnabled", i64 50} ; [ DW_TAG_enumerator ] [cudaErrorPeerAccessAlreadyEnabled :: 50]
!389 = metadata !{i32 786472, metadata !"cudaErrorPeerAccessNotEnabled", i64 51} ; [ DW_TAG_enumerator ] [cudaErrorPeerAccessNotEnabled :: 51]
!390 = metadata !{i32 786472, metadata !"cudaErrorDeviceAlreadyInUse", i64 54} ; [ DW_TAG_enumerator ] [cudaErrorDeviceAlreadyInUse :: 54]
!391 = metadata !{i32 786472, metadata !"cudaErrorProfilerDisabled", i64 55} ; [ DW_TAG_enumerator ] [cudaErrorProfilerDisabled :: 55]
!392 = metadata !{i32 786472, metadata !"cudaErrorProfilerNotInitialized", i64 56} ; [ DW_TAG_enumerator ] [cudaErrorProfilerNotInitialized :: 56]
!393 = metadata !{i32 786472, metadata !"cudaErrorProfilerAlreadyStarted", i64 57} ; [ DW_TAG_enumerator ] [cudaErrorProfilerAlreadyStarted :: 57]
!394 = metadata !{i32 786472, metadata !"cudaErrorProfilerAlreadyStopped", i64 58} ; [ DW_TAG_enumerator ] [cudaErrorProfilerAlreadyStopped :: 58]
!395 = metadata !{i32 786472, metadata !"cudaErrorAssert", i64 59} ; [ DW_TAG_enumerator ] [cudaErrorAssert :: 59]
!396 = metadata !{i32 786472, metadata !"cudaErrorTooManyPeers", i64 60} ; [ DW_TAG_enumerator ] [cudaErrorTooManyPeers :: 60]
!397 = metadata !{i32 786472, metadata !"cudaErrorHostMemoryAlreadyRegistered", i64 61} ; [ DW_TAG_enumerator ] [cudaErrorHostMemoryAlreadyRegistered :: 61]
!398 = metadata !{i32 786472, metadata !"cudaErrorHostMemoryNotRegistered", i64 62} ; [ DW_TAG_enumerator ] [cudaErrorHostMemoryNotRegistered :: 62]
!399 = metadata !{i32 786472, metadata !"cudaErrorOperatingSystem", i64 63} ; [ DW_TAG_enumerator ] [cudaErrorOperatingSystem :: 63]
!400 = metadata !{i32 786472, metadata !"cudaErrorPeerAccessUnsupported", i64 64} ; [ DW_TAG_enumerator ] [cudaErrorPeerAccessUnsupported :: 64]
!401 = metadata !{i32 786472, metadata !"cudaErrorLaunchMaxDepthExceeded", i64 65} ; [ DW_TAG_enumerator ] [cudaErrorLaunchMaxDepthExceeded :: 65]
!402 = metadata !{i32 786472, metadata !"cudaErrorLaunchFileScopedTex", i64 66} ; [ DW_TAG_enumerator ] [cudaErrorLaunchFileScopedTex :: 66]
!403 = metadata !{i32 786472, metadata !"cudaErrorLaunchFileScopedSurf", i64 67} ; [ DW_TAG_enumerator ] [cudaErrorLaunchFileScopedSurf :: 67]
!404 = metadata !{i32 786472, metadata !"cudaErrorSyncDepthExceeded", i64 68} ; [ DW_TAG_enumerator ] [cudaErrorSyncDepthExceeded :: 68]
!405 = metadata !{i32 786472, metadata !"cudaErrorLaunchPendingCountExceeded", i64 69} ; [ DW_TAG_enumerator ] [cudaErrorLaunchPendingCountExceeded :: 69]
!406 = metadata !{i32 786472, metadata !"cudaErrorNotPermitted", i64 70} ; [ DW_TAG_enumerator ] [cudaErrorNotPermitted :: 70]
!407 = metadata !{i32 786472, metadata !"cudaErrorNotSupported", i64 71} ; [ DW_TAG_enumerator ] [cudaErrorNotSupported :: 71]
!408 = metadata !{i32 786472, metadata !"cudaErrorStartupFailure", i64 127} ; [ DW_TAG_enumerator ] [cudaErrorStartupFailure :: 127]
!409 = metadata !{i32 786472, metadata !"cudaErrorApiFailureBase", i64 10000} ; [ DW_TAG_enumerator ] [cudaErrorApiFailureBase :: 10000]
!410 = metadata !{i32 786436, null, metadata !"cudaChannelFormatKind", metadata !336, i32 649, i64 32, i64 32, i32 0, i32 0, null, metadata !411, i32 0, i32 0} ; [ DW_TAG_enumeration_type ] [cudaChannelFormatKind] [line 649, size 32, align 32, offset 0] 
!411 = metadata !{metadata !412, metadata !413, metadata !414, metadata !415}
!412 = metadata !{i32 786472, metadata !"cudaChannelFormatKindSigned", i64 0} ; [ DW_TAG_enumerator ] [cudaChannelFormatKindSigned :: 0]
!413 = metadata !{i32 786472, metadata !"cudaChannelFormatKindUnsigned", i64 1} ; [ DW_TAG_enumerator ] [cudaChannelFormatKindUnsigned :: 1]
!414 = metadata !{i32 786472, metadata !"cudaChannelFormatKindFloat", i64 2} ; [ DW_TAG_enumerator ] [cudaChannelFormatKindFloat :: 2]
!415 = metadata !{i32 786472, metadata !"cudaChannelFormatKindNone", i64 3} ; [ DW_TAG_enumerator ] [cudaChannelFormatKindNone :: 3]
!416 = metadata !{i32 786436, null, metadata !"cudaMemcpyKind", metadata !336, i32 705, i64 32, i64 32, i32 0, i32 0, null, metadata !77, i32 0, i32 0} ; [ DW_TAG_enumeration_type ] [cudaMemcpyKind] [line 705, size 32, align 32, offset 0] [from ]
!417 = metadata !{metadata !418}
!418 = metadata !{metadata !419, metadata !448, metadata !454, metadata !460, metadata !464, metadata !472, metadata !480, metadata !488, metadata !496, metadata !503, metadata !511, metadata !515, metadata !522, metadata !536, metadata !546, metadata !5
!419 = metadata !{i32 786478, i32 0, metadata !420, metadata !"cudaArrayGetInfo", metadata !"cudaArrayGetInfo", metadata !"", metadata !420, i32 24, metadata !421, i1 false, i1 true, i32 0, i32 0, null, i32 256, i1 true, i32 (%struct.cudaChannelFormatDes
!420 = metadata !{i32 786473, metadata !"/home/sawaya/Gklee/Gklee/runtime/CudaRuntime/cudaMemManage.cpp", metadata !"/home/sawaya/Gklee/build/Gklee/runtime/CudaRuntime", null} ; [ DW_TAG_file_type ]
!421 = metadata !{i32 786453, i32 0, metadata !"", i32 0, i32 0, i64 0, i64 0, i64 0, i32 0, null, metadata !422, i32 0, i32 0} ; [ DW_TAG_subroutine_type ] [line 0, size 0, align 0, offset 0] [from ]
!422 = metadata !{metadata !423, metadata !424, metadata !432, metadata !439, metadata !440}
!423 = metadata !{i32 786454, null, metadata !"cudaError_t", metadata !420, i32 1293, i64 0, i64 0, i64 0, i32 0, metadata !335} ; [ DW_TAG_typedef ] [cudaError_t] [line 1293, size 0, align 0, offset 0] [from cudaError]
!424 = metadata !{i32 786447, null, metadata !"", null, i32 0, i64 64, i64 64, i64 0, i32 0, metadata !425} ; [ DW_TAG_pointer_type ] [line 0, size 64, align 64, offset 0] [from cudaChannelFormatDesc]
!425 = metadata !{i32 786451, null, metadata !"cudaChannelFormatDesc", metadata !336, i32 660, i64 160, i64 32, i32 0, i32 0, null, metadata !426, i32 0, null, null} ; [ DW_TAG_structure_type ] [cudaChannelFormatDesc] [line 660, size 160, align 32, offse
!426 = metadata !{metadata !427, metadata !428, metadata !429, metadata !430, metadata !431}
!427 = metadata !{i32 786445, metadata !425, metadata !"x", metadata !336, i32 662, i64 32, i64 32, i64 0, i32 0, metadata !11} ; [ DW_TAG_member ] [x] [line 662, size 32, align 32, offset 0] [from int]
!428 = metadata !{i32 786445, metadata !425, metadata !"y", metadata !336, i32 663, i64 32, i64 32, i64 32, i32 0, metadata !11} ; [ DW_TAG_member ] [y] [line 663, size 32, align 32, offset 32] [from int]
!429 = metadata !{i32 786445, metadata !425, metadata !"z", metadata !336, i32 664, i64 32, i64 32, i64 64, i32 0, metadata !11} ; [ DW_TAG_member ] [z] [line 664, size 32, align 32, offset 64] [from int]
!430 = metadata !{i32 786445, metadata !425, metadata !"w", metadata !336, i32 665, i64 32, i64 32, i64 96, i32 0, metadata !11} ; [ DW_TAG_member ] [w] [line 665, size 32, align 32, offset 96] [from int]
!431 = metadata !{i32 786445, metadata !425, metadata !"f", metadata !336, i32 666, i64 32, i64 32, i64 128, i32 0, metadata !410} ; [ DW_TAG_member ] [f] [line 666, size 32, align 32, offset 128] [from cudaChannelFormatKind]
!432 = metadata !{i32 786447, null, metadata !"", null, i32 0, i64 64, i64 64, i64 0, i32 0, metadata !433} ; [ DW_TAG_pointer_type ] [line 0, size 64, align 64, offset 0] [from cudaExtent]
!433 = metadata !{i32 786451, null, metadata !"cudaExtent", metadata !336, i32 730, i64 192, i64 64, i32 0, i32 0, null, metadata !434, i32 0, null, null} ; [ DW_TAG_structure_type ] [cudaExtent] [line 730, size 192, align 64, offset 0] [from ]
!434 = metadata !{metadata !435, metadata !437, metadata !438}
!435 = metadata !{i32 786445, metadata !433, metadata !"width", metadata !336, i32 732, i64 64, i64 64, i64 0, i32 0, metadata !436} ; [ DW_TAG_member ] [width] [line 732, size 64, align 64, offset 0] [from size_t]
!436 = metadata !{i32 786454, null, metadata !"size_t", metadata !336, i32 35, i64 0, i64 0, i64 0, i32 0, metadata !288} ; [ DW_TAG_typedef ] [size_t] [line 35, size 0, align 0, offset 0] [from long unsigned int]
!437 = metadata !{i32 786445, metadata !433, metadata !"height", metadata !336, i32 733, i64 64, i64 64, i64 64, i32 0, metadata !436} ; [ DW_TAG_member ] [height] [line 733, size 64, align 64, offset 64] [from size_t]
!438 = metadata !{i32 786445, metadata !433, metadata !"depth", metadata !336, i32 734, i64 64, i64 64, i64 128, i32 0, metadata !436} ; [ DW_TAG_member ] [depth] [line 734, size 64, align 64, offset 128] [from size_t]
!439 = metadata !{i32 786447, null, metadata !"", null, i32 0, i64 64, i64 64, i64 0, i32 0, metadata !161} ; [ DW_TAG_pointer_type ] [line 0, size 64, align 64, offset 0] [from unsigned int]
!440 = metadata !{i32 786447, null, metadata !"", null, i32 0, i64 64, i64 64, i64 0, i32 0, metadata !441} ; [ DW_TAG_pointer_type ] [line 0, size 64, align 64, offset 0] [from cudaArray]
!441 = metadata !{i32 786451, null, metadata !"cudaArray", metadata !336, i32 672, i64 0, i64 0, i32 0, i32 4, null, null, i32 0} ; [ DW_TAG_structure_type ] [cudaArray] [line 672, size 0, align 0, offset 0] [fwd] [from ]
!442 = metadata !{metadata !443}
!443 = metadata !{metadata !444, metadata !445, metadata !446, metadata !447}
!444 = metadata !{i32 786689, metadata !419, metadata !"desc", metadata !420, i32 16777240, metadata !424, i32 0, i32 0} ; [ DW_TAG_arg_variable ] [desc] [line 24]
!445 = metadata !{i32 786689, metadata !419, metadata !"extent", metadata !420, i32 33554456, metadata !432, i32 0, i32 0} ; [ DW_TAG_arg_variable ] [extent] [line 24]
!446 = metadata !{i32 786689, metadata !419, metadata !"flags", metadata !420, i32 50331673, metadata !439, i32 0, i32 0} ; [ DW_TAG_arg_variable ] [flags] [line 25]
!447 = metadata !{i32 786689, metadata !419, metadata !"array", metadata !420, i32 67108889, metadata !440, i32 0, i32 0} ; [ DW_TAG_arg_variable ] [array] [line 25]
!448 = metadata !{i32 786478, i32 0, metadata !420, metadata !"cudaFree", metadata !"cudaFree", metadata !"", metadata !420, i32 29, metadata !449, i1 false, i1 true, i32 0, i32 0, null, i32 256, i1 true, i32 (i8*)* @cudaFree, null, null, metadata !451, 
!449 = metadata !{i32 786453, i32 0, metadata !"", i32 0, i32 0, i64 0, i64 0, i64 0, i32 0, null, metadata !450, i32 0, i32 0} ; [ DW_TAG_subroutine_type ] [line 0, size 0, align 0, offset 0] [from ]
!450 = metadata !{metadata !423, metadata !284}
!451 = metadata !{metadata !452}
!452 = metadata !{metadata !453}
!453 = metadata !{i32 786689, metadata !448, metadata !"devPtr", metadata !420, i32 16777245, metadata !284, i32 0, i32 0} ; [ DW_TAG_arg_variable ] [devPtr] [line 29]
!454 = metadata !{i32 786478, i32 0, metadata !420, metadata !"cudaFreeArray", metadata !"cudaFreeArray", metadata !"", metadata !420, i32 34, metadata !455, i1 false, i1 true, i32 0, i32 0, null, i32 256, i1 true, i32 (%struct.cudaArray*)* @cudaFreeArra
!455 = metadata !{i32 786453, i32 0, metadata !"", i32 0, i32 0, i64 0, i64 0, i64 0, i32 0, null, metadata !456, i32 0, i32 0} ; [ DW_TAG_subroutine_type ] [line 0, size 0, align 0, offset 0] [from ]
!456 = metadata !{metadata !423, metadata !440}
!457 = metadata !{metadata !458}
!458 = metadata !{metadata !459}
!459 = metadata !{i32 786689, metadata !454, metadata !"array", metadata !420, i32 16777250, metadata !440, i32 0, i32 0} ; [ DW_TAG_arg_variable ] [array] [line 34]
!460 = metadata !{i32 786478, i32 0, metadata !420, metadata !"cudaFreeHost", metadata !"cudaFreeHost", metadata !"", metadata !420, i32 39, metadata !449, i1 false, i1 true, i32 0, i32 0, null, i32 256, i1 true, i32 (i8*)* @cudaFreeHost, null, null, met
!461 = metadata !{metadata !462}
!462 = metadata !{metadata !463}
!463 = metadata !{i32 786689, metadata !460, metadata !"ptr", metadata !420, i32 16777255, metadata !284, i32 0, i32 0} ; [ DW_TAG_arg_variable ] [ptr] [line 39]
!464 = metadata !{i32 786478, i32 0, metadata !420, metadata !"cudaGetSymbolAddress", metadata !"cudaGetSymbolAddress", metadata !"", metadata !420, i32 44, metadata !465, i1 false, i1 true, i32 0, i32 0, null, i32 256, i1 true, i32 (i8**, i8*)* @cudaGet
!465 = metadata !{i32 786453, i32 0, metadata !"", i32 0, i32 0, i64 0, i64 0, i64 0, i32 0, null, metadata !466, i32 0, i32 0} ; [ DW_TAG_subroutine_type ] [line 0, size 0, align 0, offset 0] [from ]
!466 = metadata !{metadata !423, metadata !467, metadata !297}
!467 = metadata !{i32 786447, null, metadata !"", null, i32 0, i64 64, i64 64, i64 0, i32 0, metadata !284} ; [ DW_TAG_pointer_type ] [line 0, size 64, align 64, offset 0] [from ]
!468 = metadata !{metadata !469}
!469 = metadata !{metadata !470, metadata !471}
!470 = metadata !{i32 786689, metadata !464, metadata !"devPtr", metadata !420, i32 16777260, metadata !467, i32 0, i32 0} ; [ DW_TAG_arg_variable ] [devPtr] [line 44]
!471 = metadata !{i32 786689, metadata !464, metadata !"symbol", metadata !420, i32 33554476, metadata !297, i32 0, i32 0} ; [ DW_TAG_arg_variable ] [symbol] [line 44]
!472 = metadata !{i32 786478, i32 0, metadata !420, metadata !"cudaGetSymbolSize", metadata !"cudaGetSymbolSize", metadata !"", metadata !420, i32 48, metadata !473, i1 false, i1 true, i32 0, i32 0, null, i32 256, i1 true, i32 (i64*, i8*)* @cudaGetSymbol
!473 = metadata !{i32 786453, i32 0, metadata !"", i32 0, i32 0, i64 0, i64 0, i64 0, i32 0, null, metadata !474, i32 0, i32 0} ; [ DW_TAG_subroutine_type ] [line 0, size 0, align 0, offset 0] [from ]
!474 = metadata !{metadata !423, metadata !475, metadata !297}
!475 = metadata !{i32 786447, null, metadata !"", null, i32 0, i64 64, i64 64, i64 0, i32 0, metadata !436} ; [ DW_TAG_pointer_type ] [line 0, size 64, align 64, offset 0] [from size_t]
!476 = metadata !{metadata !477}
!477 = metadata !{metadata !478, metadata !479}
!478 = metadata !{i32 786689, metadata !472, metadata !"size", metadata !420, i32 16777264, metadata !475, i32 0, i32 0} ; [ DW_TAG_arg_variable ] [size] [line 48]
!479 = metadata !{i32 786689, metadata !472, metadata !"symbol", metadata !420, i32 33554480, metadata !297, i32 0, i32 0} ; [ DW_TAG_arg_variable ] [symbol] [line 48]
!480 = metadata !{i32 786478, i32 0, metadata !420, metadata !"cudaHostAlloc", metadata !"cudaHostAlloc", metadata !"", metadata !420, i32 52, metadata !481, i1 false, i1 true, i32 0, i32 0, null, i32 256, i1 true, i32 (i8**, i64, i32)* @cudaHostAlloc, n
!481 = metadata !{i32 786453, i32 0, metadata !"", i32 0, i32 0, i64 0, i64 0, i64 0, i32 0, null, metadata !482, i32 0, i32 0} ; [ DW_TAG_subroutine_type ] [line 0, size 0, align 0, offset 0] [from ]
!482 = metadata !{metadata !423, metadata !467, metadata !436, metadata !161}
!483 = metadata !{metadata !484}
!484 = metadata !{metadata !485, metadata !486, metadata !487}
!485 = metadata !{i32 786689, metadata !480, metadata !"pHost", metadata !420, i32 16777268, metadata !467, i32 0, i32 0} ; [ DW_TAG_arg_variable ] [pHost] [line 52]
!486 = metadata !{i32 786689, metadata !480, metadata !"size", metadata !420, i32 33554484, metadata !436, i32 0, i32 0} ; [ DW_TAG_arg_variable ] [size] [line 52]
!487 = metadata !{i32 786689, metadata !480, metadata !"flags", metadata !420, i32 50331700, metadata !161, i32 0, i32 0} ; [ DW_TAG_arg_variable ] [flags] [line 52]
!488 = metadata !{i32 786478, i32 0, metadata !420, metadata !"cudaHostGetDevicePointer", metadata !"cudaHostGetDevicePointer", metadata !"", metadata !420, i32 56, metadata !489, i1 false, i1 true, i32 0, i32 0, null, i32 256, i1 true, i32 (i8**, i8*, i
!489 = metadata !{i32 786453, i32 0, metadata !"", i32 0, i32 0, i64 0, i64 0, i64 0, i32 0, null, metadata !490, i32 0, i32 0} ; [ DW_TAG_subroutine_type ] [line 0, size 0, align 0, offset 0] [from ]
!490 = metadata !{metadata !423, metadata !467, metadata !284, metadata !161}
!491 = metadata !{metadata !492}
!492 = metadata !{metadata !493, metadata !494, metadata !495}
!493 = metadata !{i32 786689, metadata !488, metadata !"pDevice", metadata !420, i32 16777272, metadata !467, i32 0, i32 0} ; [ DW_TAG_arg_variable ] [pDevice] [line 56]
!494 = metadata !{i32 786689, metadata !488, metadata !"pHost", metadata !420, i32 33554488, metadata !284, i32 0, i32 0} ; [ DW_TAG_arg_variable ] [pHost] [line 56]
!495 = metadata !{i32 786689, metadata !488, metadata !"flags", metadata !420, i32 50331704, metadata !161, i32 0, i32 0} ; [ DW_TAG_arg_variable ] [flags] [line 56]
!496 = metadata !{i32 786478, i32 0, metadata !420, metadata !"cudaHostGetFlags", metadata !"cudaHostGetFlags", metadata !"", metadata !420, i32 60, metadata !497, i1 false, i1 true, i32 0, i32 0, null, i32 256, i1 true, i32 (i32*, i8*)* @cudaHostGetFlag
!497 = metadata !{i32 786453, i32 0, metadata !"", i32 0, i32 0, i64 0, i64 0, i64 0, i32 0, null, metadata !498, i32 0, i32 0} ; [ DW_TAG_subroutine_type ] [line 0, size 0, align 0, offset 0] [from ]
!498 = metadata !{metadata !423, metadata !439, metadata !284}
!499 = metadata !{metadata !500}
!500 = metadata !{metadata !501, metadata !502}
!501 = metadata !{i32 786689, metadata !496, metadata !"pFlags", metadata !420, i32 16777276, metadata !439, i32 0, i32 0} ; [ DW_TAG_arg_variable ] [pFlags] [line 60]
!502 = metadata !{i32 786689, metadata !496, metadata !"pHost", metadata !420, i32 33554492, metadata !284, i32 0, i32 0} ; [ DW_TAG_arg_variable ] [pHost] [line 60]
!503 = metadata !{i32 786478, i32 0, metadata !420, metadata !"cudaHostRegister", metadata !"cudaHostRegister", metadata !"", metadata !420, i32 64, metadata !504, i1 false, i1 true, i32 0, i32 0, null, i32 256, i1 true, i32 (i8*, i64, i32)* @cudaHostReg
!504 = metadata !{i32 786453, i32 0, metadata !"", i32 0, i32 0, i64 0, i64 0, i64 0, i32 0, null, metadata !505, i32 0, i32 0} ; [ DW_TAG_subroutine_type ] [line 0, size 0, align 0, offset 0] [from ]
!505 = metadata !{metadata !423, metadata !284, metadata !436, metadata !161}
!506 = metadata !{metadata !507}
!507 = metadata !{metadata !508, metadata !509, metadata !510}
!508 = metadata !{i32 786689, metadata !503, metadata !"ptr", metadata !420, i32 16777280, metadata !284, i32 0, i32 0} ; [ DW_TAG_arg_variable ] [ptr] [line 64]
!509 = metadata !{i32 786689, metadata !503, metadata !"size", metadata !420, i32 33554496, metadata !436, i32 0, i32 0} ; [ DW_TAG_arg_variable ] [size] [line 64]
!510 = metadata !{i32 786689, metadata !503, metadata !"flags", metadata !420, i32 50331712, metadata !161, i32 0, i32 0} ; [ DW_TAG_arg_variable ] [flags] [line 64]
!511 = metadata !{i32 786478, i32 0, metadata !420, metadata !"cudaHostUnregister", metadata !"cudaHostUnregister", metadata !"", metadata !420, i32 68, metadata !449, i1 false, i1 true, i32 0, i32 0, null, i32 256, i1 true, i32 (i8*)* @cudaHostUnregiste
!512 = metadata !{metadata !513}
!513 = metadata !{metadata !514}
!514 = metadata !{i32 786689, metadata !511, metadata !"ptr", metadata !420, i32 16777284, metadata !284, i32 0, i32 0} ; [ DW_TAG_arg_variable ] [ptr] [line 68]
!515 = metadata !{i32 786478, i32 0, metadata !420, metadata !"cudaMalloc", metadata !"cudaMalloc", metadata !"", metadata !420, i32 72, metadata !516, i1 false, i1 true, i32 0, i32 0, null, i32 256, i1 true, i32 (i8**, i64)* @cudaMalloc, null, null, met
!516 = metadata !{i32 786453, i32 0, metadata !"", i32 0, i32 0, i64 0, i64 0, i64 0, i32 0, null, metadata !517, i32 0, i32 0} ; [ DW_TAG_subroutine_type ] [line 0, size 0, align 0, offset 0] [from ]
!517 = metadata !{metadata !423, metadata !467, metadata !436}
!518 = metadata !{metadata !519}
!519 = metadata !{metadata !520, metadata !521}
!520 = metadata !{i32 786689, metadata !515, metadata !"devPtr", metadata !420, i32 16777288, metadata !467, i32 0, i32 0} ; [ DW_TAG_arg_variable ] [devPtr] [line 72]
!521 = metadata !{i32 786689, metadata !515, metadata !"size", metadata !420, i32 33554504, metadata !436, i32 0, i32 0} ; [ DW_TAG_arg_variable ] [size] [line 72]
!522 = metadata !{i32 786478, i32 0, metadata !420, metadata !"cudaMalloc3D", metadata !"cudaMalloc3D", metadata !"", metadata !420, i32 80, metadata !523, i1 false, i1 true, i32 0, i32 0, null, i32 256, i1 true, i32 (%struct.cudaPitchedPtr*, %struct.cud
!523 = metadata !{i32 786453, i32 0, metadata !"", i32 0, i32 0, i64 0, i64 0, i64 0, i32 0, null, metadata !524, i32 0, i32 0} ; [ DW_TAG_subroutine_type ] [line 0, size 0, align 0, offset 0] [from ]
!524 = metadata !{metadata !423, metadata !525, metadata !433}
!525 = metadata !{i32 786447, null, metadata !"", null, i32 0, i64 64, i64 64, i64 0, i32 0, metadata !526} ; [ DW_TAG_pointer_type ] [line 0, size 64, align 64, offset 0] [from cudaPitchedPtr]
!526 = metadata !{i32 786451, null, metadata !"cudaPitchedPtr", metadata !336, i32 718, i64 256, i64 64, i32 0, i32 0, null, metadata !527, i32 0, null, null} ; [ DW_TAG_structure_type ] [cudaPitchedPtr] [line 718, size 256, align 64, offset 0] [from ]
!527 = metadata !{metadata !528, metadata !529, metadata !530, metadata !531}
!528 = metadata !{i32 786445, metadata !526, metadata !"ptr", metadata !336, i32 720, i64 64, i64 64, i64 0, i32 0, metadata !284} ; [ DW_TAG_member ] [ptr] [line 720, size 64, align 64, offset 0] [from ]
!529 = metadata !{i32 786445, metadata !526, metadata !"pitch", metadata !336, i32 721, i64 64, i64 64, i64 64, i32 0, metadata !436} ; [ DW_TAG_member ] [pitch] [line 721, size 64, align 64, offset 64] [from size_t]
!530 = metadata !{i32 786445, metadata !526, metadata !"xsize", metadata !336, i32 722, i64 64, i64 64, i64 128, i32 0, metadata !436} ; [ DW_TAG_member ] [xsize] [line 722, size 64, align 64, offset 128] [from size_t]
!531 = metadata !{i32 786445, metadata !526, metadata !"ysize", metadata !336, i32 723, i64 64, i64 64, i64 192, i32 0, metadata !436} ; [ DW_TAG_member ] [ysize] [line 723, size 64, align 64, offset 192] [from size_t]
!532 = metadata !{metadata !533}
!533 = metadata !{metadata !534, metadata !535}
!534 = metadata !{i32 786689, metadata !522, metadata !"pitchedDevPtr", metadata !420, i32 16777296, metadata !525, i32 0, i32 0} ; [ DW_TAG_arg_variable ] [pitchedDevPtr] [line 80]
!535 = metadata !{i32 786689, metadata !522, metadata !"extent", metadata !420, i32 33554512, metadata !433, i32 0, i32 0} ; [ DW_TAG_arg_variable ] [extent] [line 80]
!536 = metadata !{i32 786478, i32 0, metadata !420, metadata !"cudaMalloc3DArray", metadata !"cudaMalloc3DArray", metadata !"", metadata !420, i32 84, metadata !537, i1 false, i1 true, i32 0, i32 0, null, i32 256, i1 true, i32 (%struct.cudaArray**, %stru
!537 = metadata !{i32 786453, i32 0, metadata !"", i32 0, i32 0, i64 0, i64 0, i64 0, i32 0, null, metadata !538, i32 0, i32 0} ; [ DW_TAG_subroutine_type ] [line 0, size 0, align 0, offset 0] [from ]
!538 = metadata !{metadata !423, metadata !539, metadata !424, metadata !433, metadata !161}
!539 = metadata !{i32 786447, null, metadata !"", null, i32 0, i64 64, i64 64, i64 0, i32 0, metadata !440} ; [ DW_TAG_pointer_type ] [line 0, size 64, align 64, offset 0] [from ]
!540 = metadata !{metadata !541}
!541 = metadata !{metadata !542, metadata !543, metadata !544, metadata !545}
!542 = metadata !{i32 786689, metadata !536, metadata !"array", metadata !420, i32 16777300, metadata !539, i32 0, i32 0} ; [ DW_TAG_arg_variable ] [array] [line 84]
!543 = metadata !{i32 786689, metadata !536, metadata !"desc", metadata !420, i32 33554516, metadata !424, i32 0, i32 0} ; [ DW_TAG_arg_variable ] [desc] [line 84]
!544 = metadata !{i32 786689, metadata !536, metadata !"extent", metadata !420, i32 50331733, metadata !433, i32 0, i32 0} ; [ DW_TAG_arg_variable ] [extent] [line 85]
!545 = metadata !{i32 786689, metadata !536, metadata !"flags", metadata !420, i32 67108949, metadata !161, i32 0, i32 0} ; [ DW_TAG_arg_variable ] [flags] [line 85]
!546 = metadata !{i32 786478, i32 0, metadata !420, metadata !"cudaMallocArray", metadata !"cudaMallocArray", metadata !"", metadata !420, i32 89, metadata !547, i1 false, i1 true, i32 0, i32 0, null, i32 256, i1 true, i32 (%struct.cudaArray**, %struct.c
!547 = metadata !{i32 786453, i32 0, metadata !"", i32 0, i32 0, i64 0, i64 0, i64 0, i32 0, null, metadata !548, i32 0, i32 0} ; [ DW_TAG_subroutine_type ] [line 0, size 0, align 0, offset 0] [from ]
!548 = metadata !{metadata !423, metadata !539, metadata !424, metadata !436, metadata !436, metadata !161}
!549 = metadata !{metadata !550}
!550 = metadata !{metadata !551, metadata !552, metadata !553, metadata !554, metadata !555}
!551 = metadata !{i32 786689, metadata !546, metadata !"array", metadata !420, i32 16777305, metadata !539, i32 0, i32 0} ; [ DW_TAG_arg_variable ] [array] [line 89]
!552 = metadata !{i32 786689, metadata !546, metadata !"desc", metadata !420, i32 33554521, metadata !424, i32 0, i32 0} ; [ DW_TAG_arg_variable ] [desc] [line 89]
!553 = metadata !{i32 786689, metadata !546, metadata !"width", metadata !420, i32 50331738, metadata !436, i32 0, i32 0} ; [ DW_TAG_arg_variable ] [width] [line 90]
!554 = metadata !{i32 786689, metadata !546, metadata !"height", metadata !420, i32 67108954, metadata !436, i32 0, i32 0} ; [ DW_TAG_arg_variable ] [height] [line 90]
!555 = metadata !{i32 786689, metadata !546, metadata !"flags", metadata !420, i32 83886170, metadata !161, i32 0, i32 0} ; [ DW_TAG_arg_variable ] [flags] [line 90]
!556 = metadata !{i32 786478, i32 0, metadata !420, metadata !"cudaMallocHost", metadata !"cudaMallocHost", metadata !"", metadata !420, i32 94, metadata !516, i1 false, i1 true, i32 0, i32 0, null, i32 256, i1 true, i32 (i8**, i64)* @cudaMallocHost, nul
!557 = metadata !{metadata !558}
!558 = metadata !{metadata !559, metadata !560}
!559 = metadata !{i32 786689, metadata !556, metadata !"ptr", metadata !420, i32 16777310, metadata !467, i32 0, i32 0} ; [ DW_TAG_arg_variable ] [ptr] [line 94]
!560 = metadata !{i32 786689, metadata !556, metadata !"size", metadata !420, i32 33554526, metadata !436, i32 0, i32 0} ; [ DW_TAG_arg_variable ] [size] [line 94]
!561 = metadata !{i32 786478, i32 0, metadata !420, metadata !"cudaMallocPitch", metadata !"cudaMallocPitch", metadata !"", metadata !420, i32 102, metadata !562, i1 false, i1 true, i32 0, i32 0, null, i32 256, i1 true, i32 (i8**, i64*, i64, i64)* @cudaM
!562 = metadata !{i32 786453, i32 0, metadata !"", i32 0, i32 0, i64 0, i64 0, i64 0, i32 0, null, metadata !563, i32 0, i32 0} ; [ DW_TAG_subroutine_type ] [line 0, size 0, align 0, offset 0] [from ]
!563 = metadata !{metadata !423, metadata !467, metadata !475, metadata !436, metadata !436}
!564 = metadata !{metadata !565}
!565 = metadata !{metadata !566, metadata !567, metadata !568, metadata !569}
!566 = metadata !{i32 786689, metadata !561, metadata !"devPtr", metadata !420, i32 16777318, metadata !467, i32 0, i32 0} ; [ DW_TAG_arg_variable ] [devPtr] [line 102]
!567 = metadata !{i32 786689, metadata !561, metadata !"pitch", metadata !420, i32 33554534, metadata !475, i32 0, i32 0} ; [ DW_TAG_arg_variable ] [pitch] [line 102]
!568 = metadata !{i32 786689, metadata !561, metadata !"width", metadata !420, i32 50331750, metadata !436, i32 0, i32 0} ; [ DW_TAG_arg_variable ] [width] [line 102]
!569 = metadata !{i32 786689, metadata !561, metadata !"height", metadata !420, i32 67108966, metadata !436, i32 0, i32 0} ; [ DW_TAG_arg_variable ] [height] [line 102]
!570 = metadata !{i32 786478, i32 0, metadata !420, metadata !"cudaMemcpy", metadata !"cudaMemcpy", metadata !"", metadata !420, i32 106, metadata !571, i1 false, i1 true, i32 0, i32 0, null, i32 256, i1 true, i32 (i8*, i8*, i64, i32)* @cudaMemcpy, null,
!571 = metadata !{i32 786453, i32 0, metadata !"", i32 0, i32 0, i64 0, i64 0, i64 0, i32 0, null, metadata !572, i32 0, i32 0} ; [ DW_TAG_subroutine_type ] [line 0, size 0, align 0, offset 0] [from ]
!572 = metadata !{metadata !423, metadata !284, metadata !285, metadata !436, metadata !416}
!573 = metadata !{metadata !574}
!574 = metadata !{metadata !575, metadata !576, metadata !577, metadata !578}
!575 = metadata !{i32 786689, metadata !570, metadata !"dst", metadata !420, i32 16777322, metadata !284, i32 0, i32 0} ; [ DW_TAG_arg_variable ] [dst] [line 106]
!576 = metadata !{i32 786689, metadata !570, metadata !"src", metadata !420, i32 33554538, metadata !285, i32 0, i32 0} ; [ DW_TAG_arg_variable ] [src] [line 106]
!577 = metadata !{i32 786689, metadata !570, metadata !"count", metadata !420, i32 50331754, metadata !436, i32 0, i32 0} ; [ DW_TAG_arg_variable ] [count] [line 106]
!578 = metadata !{i32 786689, metadata !570, metadata !"kind", metadata !420, i32 67108970, metadata !416, i32 0, i32 0} ; [ DW_TAG_arg_variable ] [kind] [line 106]
!579 = metadata !{i32 786478, i32 0, metadata !420, metadata !"cudaMemcpy2D", metadata !"cudaMemcpy2D", metadata !"", metadata !420, i32 111, metadata !580, i1 false, i1 true, i32 0, i32 0, null, i32 256, i1 true, i32 (i8*, i64, i8*, i64, i64, i64, i32)*
!580 = metadata !{i32 786453, i32 0, metadata !"", i32 0, i32 0, i64 0, i64 0, i64 0, i32 0, null, metadata !581, i32 0, i32 0} ; [ DW_TAG_subroutine_type ] [line 0, size 0, align 0, offset 0] [from ]
!581 = metadata !{metadata !423, metadata !284, metadata !436, metadata !285, metadata !436, metadata !436, metadata !436, metadata !416}
!582 = metadata !{metadata !583}
!583 = metadata !{metadata !584, metadata !585, metadata !586, metadata !587, metadata !588, metadata !589, metadata !590}
!584 = metadata !{i32 786689, metadata !579, metadata !"dst", metadata !420, i32 16777327, metadata !284, i32 0, i32 0} ; [ DW_TAG_arg_variable ] [dst] [line 111]
!585 = metadata !{i32 786689, metadata !579, metadata !"dpitch", metadata !420, i32 33554543, metadata !436, i32 0, i32 0} ; [ DW_TAG_arg_variable ] [dpitch] [line 111]
!586 = metadata !{i32 786689, metadata !579, metadata !"src", metadata !420, i32 50331759, metadata !285, i32 0, i32 0} ; [ DW_TAG_arg_variable ] [src] [line 111]
!587 = metadata !{i32 786689, metadata !579, metadata !"spitch", metadata !420, i32 67108975, metadata !436, i32 0, i32 0} ; [ DW_TAG_arg_variable ] [spitch] [line 111]
!588 = metadata !{i32 786689, metadata !579, metadata !"width", metadata !420, i32 83886192, metadata !436, i32 0, i32 0} ; [ DW_TAG_arg_variable ] [width] [line 112]
!589 = metadata !{i32 786689, metadata !579, metadata !"height", metadata !420, i32 100663408, metadata !436, i32 0, i32 0} ; [ DW_TAG_arg_variable ] [height] [line 112]
!590 = metadata !{i32 786689, metadata !579, metadata !"kind", metadata !420, i32 117440624, metadata !416, i32 0, i32 0} ; [ DW_TAG_arg_variable ] [kind] [line 112]
!591 = metadata !{i32 786478, i32 0, metadata !420, metadata !"cudaMemcpy2DArrayToArray", metadata !"cudaMemcpy2DArrayToArray", metadata !"", metadata !420, i32 116, metadata !592, i1 false, i1 true, i32 0, i32 0, null, i32 256, i1 true, i32 (%struct.cud
!592 = metadata !{i32 786453, i32 0, metadata !"", i32 0, i32 0, i64 0, i64 0, i64 0, i32 0, null, metadata !593, i32 0, i32 0} ; [ DW_TAG_subroutine_type ] [line 0, size 0, align 0, offset 0] [from ]
!593 = metadata !{metadata !423, metadata !440, metadata !436, metadata !436, metadata !440, metadata !436, metadata !436, metadata !436, metadata !436, metadata !416}
!594 = metadata !{metadata !595}
!595 = metadata !{metadata !596, metadata !597, metadata !598, metadata !599, metadata !600, metadata !601, metadata !602, metadata !603, metadata !604}
!596 = metadata !{i32 786689, metadata !591, metadata !"dst", metadata !420, i32 16777332, metadata !440, i32 0, i32 0} ; [ DW_TAG_arg_variable ] [dst] [line 116]
!597 = metadata !{i32 786689, metadata !591, metadata !"wOffsetDst", metadata !420, i32 33554548, metadata !436, i32 0, i32 0} ; [ DW_TAG_arg_variable ] [wOffsetDst] [line 116]
!598 = metadata !{i32 786689, metadata !591, metadata !"hOffsetDst", metadata !420, i32 50331764, metadata !436, i32 0, i32 0} ; [ DW_TAG_arg_variable ] [hOffsetDst] [line 116]
!599 = metadata !{i32 786689, metadata !591, metadata !"src", metadata !420, i32 67108981, metadata !440, i32 0, i32 0} ; [ DW_TAG_arg_variable ] [src] [line 117]
!600 = metadata !{i32 786689, metadata !591, metadata !"wOffsetSrc", metadata !420, i32 83886197, metadata !436, i32 0, i32 0} ; [ DW_TAG_arg_variable ] [wOffsetSrc] [line 117]
!601 = metadata !{i32 786689, metadata !591, metadata !"hOffsetSrc", metadata !420, i32 100663413, metadata !436, i32 0, i32 0} ; [ DW_TAG_arg_variable ] [hOffsetSrc] [line 117]
!602 = metadata !{i32 786689, metadata !591, metadata !"width", metadata !420, i32 117440630, metadata !436, i32 0, i32 0} ; [ DW_TAG_arg_variable ] [width] [line 118]
!603 = metadata !{i32 786689, metadata !591, metadata !"height", metadata !420, i32 134217846, metadata !436, i32 0, i32 0} ; [ DW_TAG_arg_variable ] [height] [line 118]
!604 = metadata !{i32 786689, metadata !591, metadata !"kind", metadata !420, i32 150995062, metadata !416, i32 0, i32 0} ; [ DW_TAG_arg_variable ] [kind] [line 118]
!605 = metadata !{i32 786478, i32 0, metadata !420, metadata !"cudaMemcpy2DAsync", metadata !"cudaMemcpy2DAsync", metadata !"", metadata !420, i32 122, metadata !606, i1 false, i1 true, i32 0, i32 0, null, i32 256, i1 true, i32 (i8*, i64, i8*, i64, i64, 
!606 = metadata !{i32 786453, i32 0, metadata !"", i32 0, i32 0, i64 0, i64 0, i64 0, i32 0, null, metadata !607, i32 0, i32 0} ; [ DW_TAG_subroutine_type ] [line 0, size 0, align 0, offset 0] [from ]
!607 = metadata !{metadata !423, metadata !284, metadata !436, metadata !285, metadata !436, metadata !436, metadata !436, metadata !416, metadata !608}
!608 = metadata !{i32 786454, null, metadata !"cudaStream_t", metadata !420, i32 1298, i64 0, i64 0, i64 0, i32 0, metadata !609} ; [ DW_TAG_typedef ] [cudaStream_t] [line 1298, size 0, align 0, offset 0] [from ]
!609 = metadata !{i32 786447, null, metadata !"", null, i32 0, i64 64, i64 64, i64 0, i32 0, metadata !610} ; [ DW_TAG_pointer_type ] [line 0, size 64, align 64, offset 0] [from CUstream_st]
!610 = metadata !{i32 786451, null, metadata !"CUstream_st", metadata !336, i32 1298, i64 0, i64 0, i32 0, i32 4, null, null, i32 0} ; [ DW_TAG_structure_type ] [CUstream_st] [line 1298, size 0, align 0, offset 0] [fwd] [from ]
!611 = metadata !{metadata !612}
!612 = metadata !{metadata !613, metadata !614, metadata !615, metadata !616, metadata !617, metadata !618, metadata !619, metadata !620}
!613 = metadata !{i32 786689, metadata !605, metadata !"dst", metadata !420, i32 16777338, metadata !284, i32 0, i32 0} ; [ DW_TAG_arg_variable ] [dst] [line 122]
!614 = metadata !{i32 786689, metadata !605, metadata !"dpitch", metadata !420, i32 33554554, metadata !436, i32 0, i32 0} ; [ DW_TAG_arg_variable ] [dpitch] [line 122]
!615 = metadata !{i32 786689, metadata !605, metadata !"src", metadata !420, i32 50331770, metadata !285, i32 0, i32 0} ; [ DW_TAG_arg_variable ] [src] [line 122]
!616 = metadata !{i32 786689, metadata !605, metadata !"spitch", metadata !420, i32 67108986, metadata !436, i32 0, i32 0} ; [ DW_TAG_arg_variable ] [spitch] [line 122]
!617 = metadata !{i32 786689, metadata !605, metadata !"width", metadata !420, i32 83886203, metadata !436, i32 0, i32 0} ; [ DW_TAG_arg_variable ] [width] [line 123]
!618 = metadata !{i32 786689, metadata !605, metadata !"height", metadata !420, i32 100663419, metadata !436, i32 0, i32 0} ; [ DW_TAG_arg_variable ] [height] [line 123]
!619 = metadata !{i32 786689, metadata !605, metadata !"kind", metadata !420, i32 117440635, metadata !416, i32 0, i32 0} ; [ DW_TAG_arg_variable ] [kind] [line 123]
!620 = metadata !{i32 786689, metadata !605, metadata !"stream", metadata !420, i32 134217852, metadata !608, i32 0, i32 0} ; [ DW_TAG_arg_variable ] [stream] [line 124]
!621 = metadata !{i32 786478, i32 0, metadata !420, metadata !"cudaMemcpy2DFromArray", metadata !"cudaMemcpy2DFromArray", metadata !"", metadata !420, i32 128, metadata !622, i1 false, i1 true, i32 0, i32 0, null, i32 256, i1 true, i32 (i8*, i64, %struct
!622 = metadata !{i32 786453, i32 0, metadata !"", i32 0, i32 0, i64 0, i64 0, i64 0, i32 0, null, metadata !623, i32 0, i32 0} ; [ DW_TAG_subroutine_type ] [line 0, size 0, align 0, offset 0] [from ]
!623 = metadata !{metadata !423, metadata !284, metadata !436, metadata !440, metadata !436, metadata !436, metadata !436, metadata !436, metadata !416}
!624 = metadata !{metadata !625}
!625 = metadata !{metadata !626, metadata !627, metadata !628, metadata !629, metadata !630, metadata !631, metadata !632, metadata !633}
!626 = metadata !{i32 786689, metadata !621, metadata !"dst", metadata !420, i32 16777344, metadata !284, i32 0, i32 0} ; [ DW_TAG_arg_variable ] [dst] [line 128]
!627 = metadata !{i32 786689, metadata !621, metadata !"dpitch", metadata !420, i32 33554560, metadata !436, i32 0, i32 0} ; [ DW_TAG_arg_variable ] [dpitch] [line 128]
!628 = metadata !{i32 786689, metadata !621, metadata !"src", metadata !420, i32 50331776, metadata !440, i32 0, i32 0} ; [ DW_TAG_arg_variable ] [src] [line 128]
!629 = metadata !{i32 786689, metadata !621, metadata !"wOffset", metadata !420, i32 67108993, metadata !436, i32 0, i32 0} ; [ DW_TAG_arg_variable ] [wOffset] [line 129]
!630 = metadata !{i32 786689, metadata !621, metadata !"hOffset", metadata !420, i32 83886209, metadata !436, i32 0, i32 0} ; [ DW_TAG_arg_variable ] [hOffset] [line 129]
!631 = metadata !{i32 786689, metadata !621, metadata !"width", metadata !420, i32 100663425, metadata !436, i32 0, i32 0} ; [ DW_TAG_arg_variable ] [width] [line 129]
!632 = metadata !{i32 786689, metadata !621, metadata !"height", metadata !420, i32 117440641, metadata !436, i32 0, i32 0} ; [ DW_TAG_arg_variable ] [height] [line 129]
!633 = metadata !{i32 786689, metadata !621, metadata !"kind", metadata !420, i32 134217858, metadata !416, i32 0, i32 0} ; [ DW_TAG_arg_variable ] [kind] [line 130]
!634 = metadata !{i32 786478, i32 0, metadata !420, metadata !"cudaMemcpy2DFromArrayAsync", metadata !"cudaMemcpy2DFromArrayAsync", metadata !"", metadata !420, i32 134, metadata !635, i1 false, i1 true, i32 0, i32 0, null, i32 256, i1 true, i32 (i8*, i6
!635 = metadata !{i32 786453, i32 0, metadata !"", i32 0, i32 0, i64 0, i64 0, i64 0, i32 0, null, metadata !636, i32 0, i32 0} ; [ DW_TAG_subroutine_type ] [line 0, size 0, align 0, offset 0] [from ]
!636 = metadata !{metadata !423, metadata !284, metadata !436, metadata !440, metadata !436, metadata !436, metadata !436, metadata !436, metadata !416, metadata !608}
!637 = metadata !{metadata !638}
!638 = metadata !{metadata !639, metadata !640, metadata !641, metadata !642, metadata !643, metadata !644, metadata !645, metadata !646, metadata !647}
!639 = metadata !{i32 786689, metadata !634, metadata !"dst", metadata !420, i32 16777350, metadata !284, i32 0, i32 0} ; [ DW_TAG_arg_variable ] [dst] [line 134]
!640 = metadata !{i32 786689, metadata !634, metadata !"dpitch", metadata !420, i32 33554566, metadata !436, i32 0, i32 0} ; [ DW_TAG_arg_variable ] [dpitch] [line 134]
!641 = metadata !{i32 786689, metadata !634, metadata !"src", metadata !420, i32 50331782, metadata !440, i32 0, i32 0} ; [ DW_TAG_arg_variable ] [src] [line 134]
!642 = metadata !{i32 786689, metadata !634, metadata !"wOffset", metadata !420, i32 67108999, metadata !436, i32 0, i32 0} ; [ DW_TAG_arg_variable ] [wOffset] [line 135]
!643 = metadata !{i32 786689, metadata !634, metadata !"hOffset", metadata !420, i32 83886215, metadata !436, i32 0, i32 0} ; [ DW_TAG_arg_variable ] [hOffset] [line 135]
!644 = metadata !{i32 786689, metadata !634, metadata !"width", metadata !420, i32 100663431, metadata !436, i32 0, i32 0} ; [ DW_TAG_arg_variable ] [width] [line 135]
!645 = metadata !{i32 786689, metadata !634, metadata !"height", metadata !420, i32 117440647, metadata !436, i32 0, i32 0} ; [ DW_TAG_arg_variable ] [height] [line 135]
!646 = metadata !{i32 786689, metadata !634, metadata !"kind", metadata !420, i32 134217864, metadata !416, i32 0, i32 0} ; [ DW_TAG_arg_variable ] [kind] [line 136]
!647 = metadata !{i32 786689, metadata !634, metadata !"stream", metadata !420, i32 150995080, metadata !608, i32 0, i32 0} ; [ DW_TAG_arg_variable ] [stream] [line 136]
!648 = metadata !{i32 786478, i32 0, metadata !420, metadata !"cudaMemcpy2DToArray", metadata !"cudaMemcpy2DToArray", metadata !"", metadata !420, i32 140, metadata !649, i1 false, i1 true, i32 0, i32 0, null, i32 256, i1 true, i32 (%struct.cudaArray*, i
!649 = metadata !{i32 786453, i32 0, metadata !"", i32 0, i32 0, i64 0, i64 0, i64 0, i32 0, null, metadata !650, i32 0, i32 0} ; [ DW_TAG_subroutine_type ] [line 0, size 0, align 0, offset 0] [from ]
!650 = metadata !{metadata !423, metadata !440, metadata !436, metadata !436, metadata !285, metadata !436, metadata !436, metadata !436, metadata !416}
!651 = metadata !{metadata !652}
!652 = metadata !{metadata !653, metadata !654, metadata !655, metadata !656, metadata !657, metadata !658, metadata !659, metadata !660}
!653 = metadata !{i32 786689, metadata !648, metadata !"dst", metadata !420, i32 16777356, metadata !440, i32 0, i32 0} ; [ DW_TAG_arg_variable ] [dst] [line 140]
!654 = metadata !{i32 786689, metadata !648, metadata !"wOffset", metadata !420, i32 33554572, metadata !436, i32 0, i32 0} ; [ DW_TAG_arg_variable ] [wOffset] [line 140]
!655 = metadata !{i32 786689, metadata !648, metadata !"hOffset", metadata !420, i32 50331788, metadata !436, i32 0, i32 0} ; [ DW_TAG_arg_variable ] [hOffset] [line 140]
!656 = metadata !{i32 786689, metadata !648, metadata !"src", metadata !420, i32 67109005, metadata !285, i32 0, i32 0} ; [ DW_TAG_arg_variable ] [src] [line 141]
!657 = metadata !{i32 786689, metadata !648, metadata !"spitch", metadata !420, i32 83886221, metadata !436, i32 0, i32 0} ; [ DW_TAG_arg_variable ] [spitch] [line 141]
!658 = metadata !{i32 786689, metadata !648, metadata !"width", metadata !420, i32 100663437, metadata !436, i32 0, i32 0} ; [ DW_TAG_arg_variable ] [width] [line 141]
!659 = metadata !{i32 786689, metadata !648, metadata !"height", metadata !420, i32 117440653, metadata !436, i32 0, i32 0} ; [ DW_TAG_arg_variable ] [height] [line 141]
!660 = metadata !{i32 786689, metadata !648, metadata !"kind", metadata !420, i32 134217870, metadata !416, i32 0, i32 0} ; [ DW_TAG_arg_variable ] [kind] [line 142]
!661 = metadata !{i32 786478, i32 0, metadata !420, metadata !"cudaMemcpy2DToArrayAsync", metadata !"cudaMemcpy2DToArrayAsync", metadata !"", metadata !420, i32 146, metadata !662, i1 false, i1 true, i32 0, i32 0, null, i32 256, i1 true, i32 (%struct.cud
!662 = metadata !{i32 786453, i32 0, metadata !"", i32 0, i32 0, i64 0, i64 0, i64 0, i32 0, null, metadata !663, i32 0, i32 0} ; [ DW_TAG_subroutine_type ] [line 0, size 0, align 0, offset 0] [from ]
!663 = metadata !{metadata !423, metadata !440, metadata !436, metadata !436, metadata !285, metadata !436, metadata !436, metadata !436, metadata !416, metadata !608}
!664 = metadata !{metadata !665}
!665 = metadata !{metadata !666, metadata !667, metadata !668, metadata !669, metadata !670, metadata !671, metadata !672, metadata !673, metadata !674}
!666 = metadata !{i32 786689, metadata !661, metadata !"dst", metadata !420, i32 16777362, metadata !440, i32 0, i32 0} ; [ DW_TAG_arg_variable ] [dst] [line 146]
!667 = metadata !{i32 786689, metadata !661, metadata !"wOffset", metadata !420, i32 33554578, metadata !436, i32 0, i32 0} ; [ DW_TAG_arg_variable ] [wOffset] [line 146]
!668 = metadata !{i32 786689, metadata !661, metadata !"hOffset", metadata !420, i32 50331794, metadata !436, i32 0, i32 0} ; [ DW_TAG_arg_variable ] [hOffset] [line 146]
!669 = metadata !{i32 786689, metadata !661, metadata !"src", metadata !420, i32 67109011, metadata !285, i32 0, i32 0} ; [ DW_TAG_arg_variable ] [src] [line 147]
!670 = metadata !{i32 786689, metadata !661, metadata !"spitch", metadata !420, i32 83886227, metadata !436, i32 0, i32 0} ; [ DW_TAG_arg_variable ] [spitch] [line 147]
!671 = metadata !{i32 786689, metadata !661, metadata !"width", metadata !420, i32 100663443, metadata !436, i32 0, i32 0} ; [ DW_TAG_arg_variable ] [width] [line 147]
!672 = metadata !{i32 786689, metadata !661, metadata !"height", metadata !420, i32 117440659, metadata !436, i32 0, i32 0} ; [ DW_TAG_arg_variable ] [height] [line 147]
!673 = metadata !{i32 786689, metadata !661, metadata !"kind", metadata !420, i32 134217876, metadata !416, i32 0, i32 0} ; [ DW_TAG_arg_variable ] [kind] [line 148]
!674 = metadata !{i32 786689, metadata !661, metadata !"stream", metadata !420, i32 150995092, metadata !608, i32 0, i32 0} ; [ DW_TAG_arg_variable ] [stream] [line 148]
!675 = metadata !{i32 786478, i32 0, metadata !420, metadata !"cudaMemcpy3D", metadata !"cudaMemcpy3D", metadata !"", metadata !420, i32 152, metadata !676, i1 false, i1 true, i32 0, i32 0, null, i32 256, i1 true, i32 (%struct.cudaMemcpy3DParms*)* @cudaM
!676 = metadata !{i32 786453, i32 0, metadata !"", i32 0, i32 0, i64 0, i64 0, i64 0, i32 0, null, metadata !677, i32 0, i32 0} ; [ DW_TAG_subroutine_type ] [line 0, size 0, align 0, offset 0] [from ]
!677 = metadata !{metadata !423, metadata !678}
!678 = metadata !{i32 786447, null, metadata !"", null, i32 0, i64 64, i64 64, i64 0, i32 0, metadata !679} ; [ DW_TAG_pointer_type ] [line 0, size 64, align 64, offset 0] [from ]
!679 = metadata !{i32 786470, null, metadata !"", null, i32 0, i64 0, i64 0, i64 0, i32 0, metadata !680} ; [ DW_TAG_const_type ] [line 0, size 0, align 0, offset 0] [from cudaMemcpy3DParms]
!680 = metadata !{i32 786451, null, metadata !"cudaMemcpy3DParms", metadata !336, i32 751, i64 1280, i64 64, i32 0, i32 0, null, metadata !681, i32 0, null, null} ; [ DW_TAG_structure_type ] [cudaMemcpy3DParms] [line 751, size 1280, align 64, offset 0] [
!681 = metadata !{metadata !682, metadata !684, metadata !690, metadata !691, metadata !692, metadata !693, metadata !694, metadata !695}
!682 = metadata !{i32 786445, metadata !680, metadata !"srcArray", metadata !336, i32 753, i64 64, i64 64, i64 0, i32 0, metadata !683} ; [ DW_TAG_member ] [srcArray] [line 753, size 64, align 64, offset 0] [from cudaArray_t]
!683 = metadata !{i32 786454, null, metadata !"cudaArray_t", metadata !336, i32 672, i64 0, i64 0, i64 0, i32 0, metadata !440} ; [ DW_TAG_typedef ] [cudaArray_t] [line 672, size 0, align 0, offset 0] [from ]
!684 = metadata !{i32 786445, metadata !680, metadata !"srcPos", metadata !336, i32 754, i64 192, i64 64, i64 64, i32 0, metadata !685} ; [ DW_TAG_member ] [srcPos] [line 754, size 192, align 64, offset 64] [from cudaPos]
!685 = metadata !{i32 786451, null, metadata !"cudaPos", metadata !336, i32 741, i64 192, i64 64, i32 0, i32 0, null, metadata !686, i32 0, null, null} ; [ DW_TAG_structure_type ] [cudaPos] [line 741, size 192, align 64, offset 0] [from ]
!686 = metadata !{metadata !687, metadata !688, metadata !689}
!687 = metadata !{i32 786445, metadata !685, metadata !"x", metadata !336, i32 743, i64 64, i64 64, i64 0, i32 0, metadata !436} ; [ DW_TAG_member ] [x] [line 743, size 64, align 64, offset 0] [from size_t]
!688 = metadata !{i32 786445, metadata !685, metadata !"y", metadata !336, i32 744, i64 64, i64 64, i64 64, i32 0, metadata !436} ; [ DW_TAG_member ] [y] [line 744, size 64, align 64, offset 64] [from size_t]
!689 = metadata !{i32 786445, metadata !685, metadata !"z", metadata !336, i32 745, i64 64, i64 64, i64 128, i32 0, metadata !436} ; [ DW_TAG_member ] [z] [line 745, size 64, align 64, offset 128] [from size_t]
!690 = metadata !{i32 786445, metadata !680, metadata !"srcPtr", metadata !336, i32 755, i64 256, i64 64, i64 256, i32 0, metadata !526} ; [ DW_TAG_member ] [srcPtr] [line 755, size 256, align 64, offset 256] [from cudaPitchedPtr]
!691 = metadata !{i32 786445, metadata !680, metadata !"dstArray", metadata !336, i32 757, i64 64, i64 64, i64 512, i32 0, metadata !683} ; [ DW_TAG_member ] [dstArray] [line 757, size 64, align 64, offset 512] [from cudaArray_t]
!692 = metadata !{i32 786445, metadata !680, metadata !"dstPos", metadata !336, i32 758, i64 192, i64 64, i64 576, i32 0, metadata !685} ; [ DW_TAG_member ] [dstPos] [line 758, size 192, align 64, offset 576] [from cudaPos]
!693 = metadata !{i32 786445, metadata !680, metadata !"dstPtr", metadata !336, i32 759, i64 256, i64 64, i64 768, i32 0, metadata !526} ; [ DW_TAG_member ] [dstPtr] [line 759, size 256, align 64, offset 768] [from cudaPitchedPtr]
!694 = metadata !{i32 786445, metadata !680, metadata !"extent", metadata !336, i32 761, i64 192, i64 64, i64 1024, i32 0, metadata !433} ; [ DW_TAG_member ] [extent] [line 761, size 192, align 64, offset 1024] [from cudaExtent]
!695 = metadata !{i32 786445, metadata !680, metadata !"kind", metadata !336, i32 762, i64 32, i64 32, i64 1216, i32 0, metadata !416} ; [ DW_TAG_member ] [kind] [line 762, size 32, align 32, offset 1216] [from cudaMemcpyKind]
!696 = metadata !{metadata !697}
!697 = metadata !{metadata !698}
!698 = metadata !{i32 786689, metadata !675, metadata !"p", metadata !420, i32 16777368, metadata !678, i32 0, i32 0} ; [ DW_TAG_arg_variable ] [p] [line 152]
!699 = metadata !{i32 786478, i32 0, metadata !420, metadata !"cudaMemcpy3DAsync", metadata !"cudaMemcpy3DAsync", metadata !"", metadata !420, i32 156, metadata !700, i1 false, i1 true, i32 0, i32 0, null, i32 256, i1 true, i32 (%struct.cudaMemcpy3DParms
!700 = metadata !{i32 786453, i32 0, metadata !"", i32 0, i32 0, i64 0, i64 0, i64 0, i32 0, null, metadata !701, i32 0, i32 0} ; [ DW_TAG_subroutine_type ] [line 0, size 0, align 0, offset 0] [from ]
!701 = metadata !{metadata !423, metadata !678, metadata !608}
!702 = metadata !{metadata !703}
!703 = metadata !{metadata !704, metadata !705}
!704 = metadata !{i32 786689, metadata !699, metadata !"p", metadata !420, i32 16777372, metadata !678, i32 0, i32 0} ; [ DW_TAG_arg_variable ] [p] [line 156]
!705 = metadata !{i32 786689, metadata !699, metadata !"stream", metadata !420, i32 33554588, metadata !608, i32 0, i32 0} ; [ DW_TAG_arg_variable ] [stream] [line 156]
!706 = metadata !{i32 786478, i32 0, metadata !420, metadata !"cudaMemcpy3DPeer", metadata !"cudaMemcpy3DPeer", metadata !"", metadata !420, i32 160, metadata !707, i1 false, i1 true, i32 0, i32 0, null, i32 256, i1 true, i32 (%struct.cudaMemcpy3DPeerPar
!707 = metadata !{i32 786453, i32 0, metadata !"", i32 0, i32 0, i64 0, i64 0, i64 0, i32 0, null, metadata !708, i32 0, i32 0} ; [ DW_TAG_subroutine_type ] [line 0, size 0, align 0, offset 0] [from ]
!708 = metadata !{metadata !423, metadata !709}
!709 = metadata !{i32 786447, null, metadata !"", null, i32 0, i64 64, i64 64, i64 0, i32 0, metadata !710} ; [ DW_TAG_pointer_type ] [line 0, size 64, align 64, offset 0] [from ]
!710 = metadata !{i32 786470, null, metadata !"", null, i32 0, i64 0, i64 0, i64 0, i32 0, metadata !711} ; [ DW_TAG_const_type ] [line 0, size 0, align 0, offset 0] [from cudaMemcpy3DPeerParms]
!711 = metadata !{i32 786451, null, metadata !"cudaMemcpy3DPeerParms", metadata !336, i32 768, i64 1344, i64 64, i32 0, i32 0, null, metadata !712, i32 0, null, null} ; [ DW_TAG_structure_type ] [cudaMemcpy3DPeerParms] [line 768, size 1344, align 64, off
!712 = metadata !{metadata !713, metadata !714, metadata !715, metadata !716, metadata !717, metadata !718, metadata !719, metadata !720, metadata !721}
!713 = metadata !{i32 786445, metadata !711, metadata !"srcArray", metadata !336, i32 770, i64 64, i64 64, i64 0, i32 0, metadata !683} ; [ DW_TAG_member ] [srcArray] [line 770, size 64, align 64, offset 0] [from cudaArray_t]
!714 = metadata !{i32 786445, metadata !711, metadata !"srcPos", metadata !336, i32 771, i64 192, i64 64, i64 64, i32 0, metadata !685} ; [ DW_TAG_member ] [srcPos] [line 771, size 192, align 64, offset 64] [from cudaPos]
!715 = metadata !{i32 786445, metadata !711, metadata !"srcPtr", metadata !336, i32 772, i64 256, i64 64, i64 256, i32 0, metadata !526} ; [ DW_TAG_member ] [srcPtr] [line 772, size 256, align 64, offset 256] [from cudaPitchedPtr]
!716 = metadata !{i32 786445, metadata !711, metadata !"srcDevice", metadata !336, i32 773, i64 32, i64 32, i64 512, i32 0, metadata !11} ; [ DW_TAG_member ] [srcDevice] [line 773, size 32, align 32, offset 512] [from int]
!717 = metadata !{i32 786445, metadata !711, metadata !"dstArray", metadata !336, i32 775, i64 64, i64 64, i64 576, i32 0, metadata !683} ; [ DW_TAG_member ] [dstArray] [line 775, size 64, align 64, offset 576] [from cudaArray_t]
!718 = metadata !{i32 786445, metadata !711, metadata !"dstPos", metadata !336, i32 776, i64 192, i64 64, i64 640, i32 0, metadata !685} ; [ DW_TAG_member ] [dstPos] [line 776, size 192, align 64, offset 640] [from cudaPos]
!719 = metadata !{i32 786445, metadata !711, metadata !"dstPtr", metadata !336, i32 777, i64 256, i64 64, i64 832, i32 0, metadata !526} ; [ DW_TAG_member ] [dstPtr] [line 777, size 256, align 64, offset 832] [from cudaPitchedPtr]
!720 = metadata !{i32 786445, metadata !711, metadata !"dstDevice", metadata !336, i32 778, i64 32, i64 32, i64 1088, i32 0, metadata !11} ; [ DW_TAG_member ] [dstDevice] [line 778, size 32, align 32, offset 1088] [from int]
!721 = metadata !{i32 786445, metadata !711, metadata !"extent", metadata !336, i32 780, i64 192, i64 64, i64 1152, i32 0, metadata !433} ; [ DW_TAG_member ] [extent] [line 780, size 192, align 64, offset 1152] [from cudaExtent]
!722 = metadata !{metadata !723}
!723 = metadata !{metadata !724}
!724 = metadata !{i32 786689, metadata !706, metadata !"p", metadata !420, i32 16777376, metadata !709, i32 0, i32 0} ; [ DW_TAG_arg_variable ] [p] [line 160]
!725 = metadata !{i32 786478, i32 0, metadata !420, metadata !"cudaMemcpy3DPeerAsync", metadata !"cudaMemcpy3DPeerAsync", metadata !"", metadata !420, i32 164, metadata !726, i1 false, i1 true, i32 0, i32 0, null, i32 256, i1 true, i32 (%struct.cudaMemcp
!726 = metadata !{i32 786453, i32 0, metadata !"", i32 0, i32 0, i64 0, i64 0, i64 0, i32 0, null, metadata !727, i32 0, i32 0} ; [ DW_TAG_subroutine_type ] [line 0, size 0, align 0, offset 0] [from ]
!727 = metadata !{metadata !423, metadata !709, metadata !608}
!728 = metadata !{metadata !729}
!729 = metadata !{metadata !730, metadata !731}
!730 = metadata !{i32 786689, metadata !725, metadata !"p", metadata !420, i32 16777380, metadata !709, i32 0, i32 0} ; [ DW_TAG_arg_variable ] [p] [line 164]
!731 = metadata !{i32 786689, metadata !725, metadata !"stream", metadata !420, i32 33554596, metadata !608, i32 0, i32 0} ; [ DW_TAG_arg_variable ] [stream] [line 164]
!732 = metadata !{i32 786478, i32 0, metadata !420, metadata !"cudaMemcpyArrayToArray", metadata !"cudaMemcpyArrayToArray", metadata !"", metadata !420, i32 168, metadata !733, i1 false, i1 true, i32 0, i32 0, null, i32 256, i1 true, i32 (%struct.cudaArr
!733 = metadata !{i32 786453, i32 0, metadata !"", i32 0, i32 0, i64 0, i64 0, i64 0, i32 0, null, metadata !734, i32 0, i32 0} ; [ DW_TAG_subroutine_type ] [line 0, size 0, align 0, offset 0] [from ]
!734 = metadata !{metadata !423, metadata !440, metadata !436, metadata !436, metadata !440, metadata !436, metadata !436, metadata !436, metadata !416}
!735 = metadata !{metadata !736}
!736 = metadata !{metadata !737, metadata !738, metadata !739, metadata !740, metadata !741, metadata !742, metadata !743, metadata !744}
!737 = metadata !{i32 786689, metadata !732, metadata !"dst", metadata !420, i32 16777384, metadata !440, i32 0, i32 0} ; [ DW_TAG_arg_variable ] [dst] [line 168]
!738 = metadata !{i32 786689, metadata !732, metadata !"wOffsetDst", metadata !420, i32 33554600, metadata !436, i32 0, i32 0} ; [ DW_TAG_arg_variable ] [wOffsetDst] [line 168]
!739 = metadata !{i32 786689, metadata !732, metadata !"hOffsetDst", metadata !420, i32 50331816, metadata !436, i32 0, i32 0} ; [ DW_TAG_arg_variable ] [hOffsetDst] [line 168]
!740 = metadata !{i32 786689, metadata !732, metadata !"src", metadata !420, i32 67109033, metadata !440, i32 0, i32 0} ; [ DW_TAG_arg_variable ] [src] [line 169]
!741 = metadata !{i32 786689, metadata !732, metadata !"wOffsetSrc", metadata !420, i32 83886249, metadata !436, i32 0, i32 0} ; [ DW_TAG_arg_variable ] [wOffsetSrc] [line 169]
!742 = metadata !{i32 786689, metadata !732, metadata !"hOffsetSrc", metadata !420, i32 100663465, metadata !436, i32 0, i32 0} ; [ DW_TAG_arg_variable ] [hOffsetSrc] [line 169]
!743 = metadata !{i32 786689, metadata !732, metadata !"count", metadata !420, i32 117440682, metadata !436, i32 0, i32 0} ; [ DW_TAG_arg_variable ] [count] [line 170]
!744 = metadata !{i32 786689, metadata !732, metadata !"kind", metadata !420, i32 134217898, metadata !416, i32 0, i32 0} ; [ DW_TAG_arg_variable ] [kind] [line 170]
!745 = metadata !{i32 786478, i32 0, metadata !420, metadata !"cudaMemcpyAsync", metadata !"cudaMemcpyAsync", metadata !"", metadata !420, i32 174, metadata !746, i1 false, i1 true, i32 0, i32 0, null, i32 256, i1 true, i32 (i8*, i8*, i64, i32, %struct.C
!746 = metadata !{i32 786453, i32 0, metadata !"", i32 0, i32 0, i64 0, i64 0, i64 0, i32 0, null, metadata !747, i32 0, i32 0} ; [ DW_TAG_subroutine_type ] [line 0, size 0, align 0, offset 0] [from ]
!747 = metadata !{metadata !423, metadata !284, metadata !285, metadata !436, metadata !416, metadata !608}
!748 = metadata !{metadata !749}
!749 = metadata !{metadata !750, metadata !751, metadata !752, metadata !753, metadata !754}
!750 = metadata !{i32 786689, metadata !745, metadata !"dst", metadata !420, i32 16777390, metadata !284, i32 0, i32 0} ; [ DW_TAG_arg_variable ] [dst] [line 174]
!751 = metadata !{i32 786689, metadata !745, metadata !"src", metadata !420, i32 33554606, metadata !285, i32 0, i32 0} ; [ DW_TAG_arg_variable ] [src] [line 174]
!752 = metadata !{i32 786689, metadata !745, metadata !"count", metadata !420, i32 50331822, metadata !436, i32 0, i32 0} ; [ DW_TAG_arg_variable ] [count] [line 174]
!753 = metadata !{i32 786689, metadata !745, metadata !"kind", metadata !420, i32 67109039, metadata !416, i32 0, i32 0} ; [ DW_TAG_arg_variable ] [kind] [line 175]
!754 = metadata !{i32 786689, metadata !745, metadata !"stream", metadata !420, i32 83886255, metadata !608, i32 0, i32 0} ; [ DW_TAG_arg_variable ] [stream] [line 175]
!755 = metadata !{i32 786478, i32 0, metadata !420, metadata !"cudaMemcpyFromArray", metadata !"cudaMemcpyFromArray", metadata !"", metadata !420, i32 179, metadata !756, i1 false, i1 true, i32 0, i32 0, null, i32 256, i1 true, i32 (i8*, %struct.cudaArra
!756 = metadata !{i32 786453, i32 0, metadata !"", i32 0, i32 0, i64 0, i64 0, i64 0, i32 0, null, metadata !757, i32 0, i32 0} ; [ DW_TAG_subroutine_type ] [line 0, size 0, align 0, offset 0] [from ]
!757 = metadata !{metadata !423, metadata !284, metadata !440, metadata !436, metadata !436, metadata !436, metadata !416}
!758 = metadata !{metadata !759}
!759 = metadata !{metadata !760, metadata !761, metadata !762, metadata !763, metadata !764, metadata !765}
!760 = metadata !{i32 786689, metadata !755, metadata !"dst", metadata !420, i32 16777395, metadata !284, i32 0, i32 0} ; [ DW_TAG_arg_variable ] [dst] [line 179]
!761 = metadata !{i32 786689, metadata !755, metadata !"src", metadata !420, i32 33554611, metadata !440, i32 0, i32 0} ; [ DW_TAG_arg_variable ] [src] [line 179]
!762 = metadata !{i32 786689, metadata !755, metadata !"wOffset", metadata !420, i32 50331827, metadata !436, i32 0, i32 0} ; [ DW_TAG_arg_variable ] [wOffset] [line 179]
!763 = metadata !{i32 786689, metadata !755, metadata !"hOffset", metadata !420, i32 67109044, metadata !436, i32 0, i32 0} ; [ DW_TAG_arg_variable ] [hOffset] [line 180]
!764 = metadata !{i32 786689, metadata !755, metadata !"count", metadata !420, i32 83886260, metadata !436, i32 0, i32 0} ; [ DW_TAG_arg_variable ] [count] [line 180]
!765 = metadata !{i32 786689, metadata !755, metadata !"kind", metadata !420, i32 100663476, metadata !416, i32 0, i32 0} ; [ DW_TAG_arg_variable ] [kind] [line 180]
!766 = metadata !{i32 786478, i32 0, metadata !420, metadata !"cudaMemcpyFromArrayAsync", metadata !"cudaMemcpyFromArrayAsync", metadata !"", metadata !420, i32 184, metadata !767, i1 false, i1 true, i32 0, i32 0, null, i32 256, i1 true, i32 (i8*, %struc
!767 = metadata !{i32 786453, i32 0, metadata !"", i32 0, i32 0, i64 0, i64 0, i64 0, i32 0, null, metadata !768, i32 0, i32 0} ; [ DW_TAG_subroutine_type ] [line 0, size 0, align 0, offset 0] [from ]
!768 = metadata !{metadata !423, metadata !284, metadata !440, metadata !436, metadata !436, metadata !436, metadata !416, metadata !608}
!769 = metadata !{metadata !770}
!770 = metadata !{metadata !771, metadata !772, metadata !773, metadata !774, metadata !775, metadata !776, metadata !777}
!771 = metadata !{i32 786689, metadata !766, metadata !"dst", metadata !420, i32 16777400, metadata !284, i32 0, i32 0} ; [ DW_TAG_arg_variable ] [dst] [line 184]
!772 = metadata !{i32 786689, metadata !766, metadata !"src", metadata !420, i32 33554616, metadata !440, i32 0, i32 0} ; [ DW_TAG_arg_variable ] [src] [line 184]
!773 = metadata !{i32 786689, metadata !766, metadata !"wOffset", metadata !420, i32 50331832, metadata !436, i32 0, i32 0} ; [ DW_TAG_arg_variable ] [wOffset] [line 184]
!774 = metadata !{i32 786689, metadata !766, metadata !"hOffset", metadata !420, i32 67109049, metadata !436, i32 0, i32 0} ; [ DW_TAG_arg_variable ] [hOffset] [line 185]
!775 = metadata !{i32 786689, metadata !766, metadata !"count", metadata !420, i32 83886265, metadata !436, i32 0, i32 0} ; [ DW_TAG_arg_variable ] [count] [line 185]
!776 = metadata !{i32 786689, metadata !766, metadata !"kind", metadata !420, i32 100663481, metadata !416, i32 0, i32 0} ; [ DW_TAG_arg_variable ] [kind] [line 185]
!777 = metadata !{i32 786689, metadata !766, metadata !"stream", metadata !420, i32 117440698, metadata !608, i32 0, i32 0} ; [ DW_TAG_arg_variable ] [stream] [line 186]
!778 = metadata !{i32 786478, i32 0, metadata !420, metadata !"cudaMemcpyFromSymbol", metadata !"cudaMemcpyFromSymbol", metadata !"", metadata !420, i32 190, metadata !779, i1 false, i1 true, i32 0, i32 0, null, i32 256, i1 true, i32 (i8*, i8*, i64, i64,
!779 = metadata !{i32 786453, i32 0, metadata !"", i32 0, i32 0, i64 0, i64 0, i64 0, i32 0, null, metadata !780, i32 0, i32 0} ; [ DW_TAG_subroutine_type ] [line 0, size 0, align 0, offset 0] [from ]
!780 = metadata !{metadata !423, metadata !284, metadata !297, metadata !436, metadata !436, metadata !416}
!781 = metadata !{metadata !782}
!782 = metadata !{metadata !783, metadata !784, metadata !785, metadata !786, metadata !787}
!783 = metadata !{i32 786689, metadata !778, metadata !"dst", metadata !420, i32 16777406, metadata !284, i32 0, i32 0} ; [ DW_TAG_arg_variable ] [dst] [line 190]
!784 = metadata !{i32 786689, metadata !778, metadata !"symbol", metadata !420, i32 33554622, metadata !297, i32 0, i32 0} ; [ DW_TAG_arg_variable ] [symbol] [line 190]
!785 = metadata !{i32 786689, metadata !778, metadata !"count", metadata !420, i32 50331838, metadata !436, i32 0, i32 0} ; [ DW_TAG_arg_variable ] [count] [line 190]
!786 = metadata !{i32 786689, metadata !778, metadata !"offset", metadata !420, i32 67109055, metadata !436, i32 0, i32 0} ; [ DW_TAG_arg_variable ] [offset] [line 191]
!787 = metadata !{i32 786689, metadata !778, metadata !"kind", metadata !420, i32 83886271, metadata !416, i32 0, i32 0} ; [ DW_TAG_arg_variable ] [kind] [line 191]
!788 = metadata !{i32 786478, i32 0, metadata !420, metadata !"cudaMemcpyFromSymbolAsync", metadata !"cudaMemcpyFromSymbolAsync", metadata !"", metadata !420, i32 195, metadata !789, i1 false, i1 true, i32 0, i32 0, null, i32 256, i1 true, i32 (i8*, i8*,
!789 = metadata !{i32 786453, i32 0, metadata !"", i32 0, i32 0, i64 0, i64 0, i64 0, i32 0, null, metadata !790, i32 0, i32 0} ; [ DW_TAG_subroutine_type ] [line 0, size 0, align 0, offset 0] [from ]
!790 = metadata !{metadata !423, metadata !284, metadata !297, metadata !436, metadata !436, metadata !416, metadata !608}
!791 = metadata !{metadata !792}
!792 = metadata !{metadata !793, metadata !794, metadata !795, metadata !796, metadata !797, metadata !798}
!793 = metadata !{i32 786689, metadata !788, metadata !"dst", metadata !420, i32 16777411, metadata !284, i32 0, i32 0} ; [ DW_TAG_arg_variable ] [dst] [line 195]
!794 = metadata !{i32 786689, metadata !788, metadata !"symbol", metadata !420, i32 33554627, metadata !297, i32 0, i32 0} ; [ DW_TAG_arg_variable ] [symbol] [line 195]
!795 = metadata !{i32 786689, metadata !788, metadata !"count", metadata !420, i32 50331843, metadata !436, i32 0, i32 0} ; [ DW_TAG_arg_variable ] [count] [line 195]
!796 = metadata !{i32 786689, metadata !788, metadata !"offset", metadata !420, i32 67109060, metadata !436, i32 0, i32 0} ; [ DW_TAG_arg_variable ] [offset] [line 196]
!797 = metadata !{i32 786689, metadata !788, metadata !"kind", metadata !420, i32 83886276, metadata !416, i32 0, i32 0} ; [ DW_TAG_arg_variable ] [kind] [line 196]
!798 = metadata !{i32 786689, metadata !788, metadata !"stream", metadata !420, i32 100663493, metadata !608, i32 0, i32 0} ; [ DW_TAG_arg_variable ] [stream] [line 197]
!799 = metadata !{i32 786478, i32 0, metadata !420, metadata !"cudaMemcpyPeer", metadata !"cudaMemcpyPeer", metadata !"", metadata !420, i32 201, metadata !800, i1 false, i1 true, i32 0, i32 0, null, i32 256, i1 true, i32 (i8*, i32, i8*, i32, i64)* @cuda
!800 = metadata !{i32 786453, i32 0, metadata !"", i32 0, i32 0, i64 0, i64 0, i64 0, i32 0, null, metadata !801, i32 0, i32 0} ; [ DW_TAG_subroutine_type ] [line 0, size 0, align 0, offset 0] [from ]
!801 = metadata !{metadata !423, metadata !284, metadata !11, metadata !285, metadata !11, metadata !436}
!802 = metadata !{metadata !803}
!803 = metadata !{metadata !804, metadata !805, metadata !806, metadata !807, metadata !808}
!804 = metadata !{i32 786689, metadata !799, metadata !"dst", metadata !420, i32 16777417, metadata !284, i32 0, i32 0} ; [ DW_TAG_arg_variable ] [dst] [line 201]
!805 = metadata !{i32 786689, metadata !799, metadata !"dstDevice", metadata !420, i32 33554633, metadata !11, i32 0, i32 0} ; [ DW_TAG_arg_variable ] [dstDevice] [line 201]
!806 = metadata !{i32 786689, metadata !799, metadata !"src", metadata !420, i32 50331849, metadata !285, i32 0, i32 0} ; [ DW_TAG_arg_variable ] [src] [line 201]
!807 = metadata !{i32 786689, metadata !799, metadata !"srcDevice", metadata !420, i32 67109065, metadata !11, i32 0, i32 0} ; [ DW_TAG_arg_variable ] [srcDevice] [line 201]
!808 = metadata !{i32 786689, metadata !799, metadata !"count", metadata !420, i32 83886281, metadata !436, i32 0, i32 0} ; [ DW_TAG_arg_variable ] [count] [line 201]
!809 = metadata !{i32 786478, i32 0, metadata !420, metadata !"cudaMemcpyPeerAsync", metadata !"cudaMemcpyPeerAsync", metadata !"", metadata !420, i32 206, metadata !810, i1 false, i1 true, i32 0, i32 0, null, i32 256, i1 true, i32 (i8*, i32, i8*, i32, i
!810 = metadata !{i32 786453, i32 0, metadata !"", i32 0, i32 0, i64 0, i64 0, i64 0, i32 0, null, metadata !811, i32 0, i32 0} ; [ DW_TAG_subroutine_type ] [line 0, size 0, align 0, offset 0] [from ]
!811 = metadata !{metadata !423, metadata !284, metadata !11, metadata !285, metadata !11, metadata !436, metadata !608}
!812 = metadata !{metadata !813}
!813 = metadata !{metadata !814, metadata !815, metadata !816, metadata !817, metadata !818, metadata !819}
!814 = metadata !{i32 786689, metadata !809, metadata !"dst", metadata !420, i32 16777422, metadata !284, i32 0, i32 0} ; [ DW_TAG_arg_variable ] [dst] [line 206]
!815 = metadata !{i32 786689, metadata !809, metadata !"dstDevice", metadata !420, i32 33554638, metadata !11, i32 0, i32 0} ; [ DW_TAG_arg_variable ] [dstDevice] [line 206]
!816 = metadata !{i32 786689, metadata !809, metadata !"src", metadata !420, i32 50331854, metadata !285, i32 0, i32 0} ; [ DW_TAG_arg_variable ] [src] [line 206]
!817 = metadata !{i32 786689, metadata !809, metadata !"srcDevice", metadata !420, i32 67109070, metadata !11, i32 0, i32 0} ; [ DW_TAG_arg_variable ] [srcDevice] [line 206]
!818 = metadata !{i32 786689, metadata !809, metadata !"count", metadata !420, i32 83886287, metadata !436, i32 0, i32 0} ; [ DW_TAG_arg_variable ] [count] [line 207]
!819 = metadata !{i32 786689, metadata !809, metadata !"stream", metadata !420, i32 100663503, metadata !608, i32 0, i32 0} ; [ DW_TAG_arg_variable ] [stream] [line 207]
!820 = metadata !{i32 786478, i32 0, metadata !420, metadata !"cudaMemcpyToArray", metadata !"cudaMemcpyToArray", metadata !"", metadata !420, i32 212, metadata !821, i1 false, i1 true, i32 0, i32 0, null, i32 256, i1 true, i32 (%struct.cudaArray*, i64, 
!821 = metadata !{i32 786453, i32 0, metadata !"", i32 0, i32 0, i64 0, i64 0, i64 0, i32 0, null, metadata !822, i32 0, i32 0} ; [ DW_TAG_subroutine_type ] [line 0, size 0, align 0, offset 0] [from ]
!822 = metadata !{metadata !423, metadata !440, metadata !436, metadata !436, metadata !285, metadata !436, metadata !416}
!823 = metadata !{metadata !824}
!824 = metadata !{metadata !825, metadata !826, metadata !827, metadata !828, metadata !829, metadata !830}
!825 = metadata !{i32 786689, metadata !820, metadata !"dst", metadata !420, i32 16777428, metadata !440, i32 0, i32 0} ; [ DW_TAG_arg_variable ] [dst] [line 212]
!826 = metadata !{i32 786689, metadata !820, metadata !"wOffset", metadata !420, i32 33554644, metadata !436, i32 0, i32 0} ; [ DW_TAG_arg_variable ] [wOffset] [line 212]
!827 = metadata !{i32 786689, metadata !820, metadata !"hOffset", metadata !420, i32 50331860, metadata !436, i32 0, i32 0} ; [ DW_TAG_arg_variable ] [hOffset] [line 212]
!828 = metadata !{i32 786689, metadata !820, metadata !"src", metadata !420, i32 67109077, metadata !285, i32 0, i32 0} ; [ DW_TAG_arg_variable ] [src] [line 213]
!829 = metadata !{i32 786689, metadata !820, metadata !"count", metadata !420, i32 83886293, metadata !436, i32 0, i32 0} ; [ DW_TAG_arg_variable ] [count] [line 213]
!830 = metadata !{i32 786689, metadata !820, metadata !"kind", metadata !420, i32 100663509, metadata !416, i32 0, i32 0} ; [ DW_TAG_arg_variable ] [kind] [line 213]
!831 = metadata !{i32 786478, i32 0, metadata !420, metadata !"cudaMemcpyToArrayAsync", metadata !"cudaMemcpyToArrayAsync", metadata !"", metadata !420, i32 217, metadata !832, i1 false, i1 true, i32 0, i32 0, null, i32 256, i1 true, i32 (%struct.cudaArr
!832 = metadata !{i32 786453, i32 0, metadata !"", i32 0, i32 0, i64 0, i64 0, i64 0, i32 0, null, metadata !833, i32 0, i32 0} ; [ DW_TAG_subroutine_type ] [line 0, size 0, align 0, offset 0] [from ]
!833 = metadata !{metadata !423, metadata !440, metadata !436, metadata !436, metadata !285, metadata !436, metadata !416, metadata !608}
!834 = metadata !{metadata !835}
!835 = metadata !{metadata !836, metadata !837, metadata !838, metadata !839, metadata !840, metadata !841, metadata !842}
!836 = metadata !{i32 786689, metadata !831, metadata !"dst", metadata !420, i32 16777433, metadata !440, i32 0, i32 0} ; [ DW_TAG_arg_variable ] [dst] [line 217]
!837 = metadata !{i32 786689, metadata !831, metadata !"wOffset", metadata !420, i32 33554649, metadata !436, i32 0, i32 0} ; [ DW_TAG_arg_variable ] [wOffset] [line 217]
!838 = metadata !{i32 786689, metadata !831, metadata !"hOffset", metadata !420, i32 50331865, metadata !436, i32 0, i32 0} ; [ DW_TAG_arg_variable ] [hOffset] [line 217]
!839 = metadata !{i32 786689, metadata !831, metadata !"src", metadata !420, i32 67109082, metadata !285, i32 0, i32 0} ; [ DW_TAG_arg_variable ] [src] [line 218]
!840 = metadata !{i32 786689, metadata !831, metadata !"count", metadata !420, i32 83886298, metadata !436, i32 0, i32 0} ; [ DW_TAG_arg_variable ] [count] [line 218]
!841 = metadata !{i32 786689, metadata !831, metadata !"kind", metadata !420, i32 100663514, metadata !416, i32 0, i32 0} ; [ DW_TAG_arg_variable ] [kind] [line 218]
!842 = metadata !{i32 786689, metadata !831, metadata !"stream", metadata !420, i32 117440731, metadata !608, i32 0, i32 0} ; [ DW_TAG_arg_variable ] [stream] [line 219]
!843 = metadata !{i32 786478, i32 0, metadata !420, metadata !"cudaMemcpyToSymbol", metadata !"cudaMemcpyToSymbol", metadata !"", metadata !420, i32 223, metadata !844, i1 false, i1 true, i32 0, i32 0, null, i32 256, i1 true, i32 (i8*, i8*, i64, i64, i32
!844 = metadata !{i32 786453, i32 0, metadata !"", i32 0, i32 0, i64 0, i64 0, i64 0, i32 0, null, metadata !845, i32 0, i32 0} ; [ DW_TAG_subroutine_type ] [line 0, size 0, align 0, offset 0] [from ]
!845 = metadata !{metadata !423, metadata !221, metadata !285, metadata !436, metadata !436, metadata !416}
!846 = metadata !{metadata !847}
!847 = metadata !{metadata !848, metadata !849, metadata !850, metadata !851, metadata !852}
!848 = metadata !{i32 786689, metadata !843, metadata !"symbol", metadata !420, i32 16777439, metadata !221, i32 0, i32 0} ; [ DW_TAG_arg_variable ] [symbol] [line 223]
!849 = metadata !{i32 786689, metadata !843, metadata !"src", metadata !420, i32 33554655, metadata !285, i32 0, i32 0} ; [ DW_TAG_arg_variable ] [src] [line 223]
!850 = metadata !{i32 786689, metadata !843, metadata !"count", metadata !420, i32 50331871, metadata !436, i32 0, i32 0} ; [ DW_TAG_arg_variable ] [count] [line 223]
!851 = metadata !{i32 786689, metadata !843, metadata !"offset", metadata !420, i32 67109088, metadata !436, i32 0, i32 0} ; [ DW_TAG_arg_variable ] [offset] [line 224]
!852 = metadata !{i32 786689, metadata !843, metadata !"kind", metadata !420, i32 83886304, metadata !416, i32 0, i32 0} ; [ DW_TAG_arg_variable ] [kind] [line 224]
!853 = metadata !{i32 786478, i32 0, metadata !420, metadata !"cudaMemcpyToSymbolAsync", metadata !"cudaMemcpyToSymbolAsync", metadata !"", metadata !420, i32 229, metadata !854, i1 false, i1 true, i32 0, i32 0, null, i32 256, i1 true, i32 (i8*, i8*, i64
!854 = metadata !{i32 786453, i32 0, metadata !"", i32 0, i32 0, i64 0, i64 0, i64 0, i32 0, null, metadata !855, i32 0, i32 0} ; [ DW_TAG_subroutine_type ] [line 0, size 0, align 0, offset 0] [from ]
!855 = metadata !{metadata !423, metadata !297, metadata !285, metadata !436, metadata !436, metadata !416, metadata !608}
!856 = metadata !{metadata !857}
!857 = metadata !{metadata !858, metadata !859, metadata !860, metadata !861, metadata !862, metadata !863}
!858 = metadata !{i32 786689, metadata !853, metadata !"symbol", metadata !420, i32 16777445, metadata !297, i32 0, i32 0} ; [ DW_TAG_arg_variable ] [symbol] [line 229]
!859 = metadata !{i32 786689, metadata !853, metadata !"src", metadata !420, i32 33554661, metadata !285, i32 0, i32 0} ; [ DW_TAG_arg_variable ] [src] [line 229]
!860 = metadata !{i32 786689, metadata !853, metadata !"count", metadata !420, i32 50331877, metadata !436, i32 0, i32 0} ; [ DW_TAG_arg_variable ] [count] [line 229]
!861 = metadata !{i32 786689, metadata !853, metadata !"offset", metadata !420, i32 67109093, metadata !436, i32 0, i32 0} ; [ DW_TAG_arg_variable ] [offset] [line 229]
!862 = metadata !{i32 786689, metadata !853, metadata !"kind", metadata !420, i32 83886310, metadata !416, i32 0, i32 0} ; [ DW_TAG_arg_variable ] [kind] [line 230]
!863 = metadata !{i32 786689, metadata !853, metadata !"stream", metadata !420, i32 100663526, metadata !608, i32 0, i32 0} ; [ DW_TAG_arg_variable ] [stream] [line 230]
!864 = metadata !{i32 786478, i32 0, metadata !420, metadata !"cudaMemGetInfo", metadata !"cudaMemGetInfo", metadata !"", metadata !420, i32 234, metadata !865, i1 false, i1 true, i32 0, i32 0, null, i32 256, i1 true, i32 (i64*, i64*)* @cudaMemGetInfo, n
!865 = metadata !{i32 786453, i32 0, metadata !"", i32 0, i32 0, i64 0, i64 0, i64 0, i32 0, null, metadata !866, i32 0, i32 0} ; [ DW_TAG_subroutine_type ] [line 0, size 0, align 0, offset 0] [from ]
!866 = metadata !{metadata !423, metadata !475, metadata !475}
!867 = metadata !{metadata !868}
!868 = metadata !{metadata !869, metadata !870}
!869 = metadata !{i32 786689, metadata !864, metadata !"free", metadata !420, i32 16777450, metadata !475, i32 0, i32 0} ; [ DW_TAG_arg_variable ] [free] [line 234]
!870 = metadata !{i32 786689, metadata !864, metadata !"total", metadata !420, i32 33554666, metadata !475, i32 0, i32 0} ; [ DW_TAG_arg_variable ] [total] [line 234]
!871 = metadata !{i32 786478, i32 0, metadata !420, metadata !"cudaMemset", metadata !"cudaMemset", metadata !"", metadata !420, i32 238, metadata !872, i1 false, i1 true, i32 0, i32 0, null, i32 256, i1 true, i32 (i8*, i32, i64)* @cudaMemset, null, null
!872 = metadata !{i32 786453, i32 0, metadata !"", i32 0, i32 0, i64 0, i64 0, i64 0, i32 0, null, metadata !873, i32 0, i32 0} ; [ DW_TAG_subroutine_type ] [line 0, size 0, align 0, offset 0] [from ]
!873 = metadata !{metadata !423, metadata !284, metadata !11, metadata !436}
!874 = metadata !{metadata !875}
!875 = metadata !{metadata !876, metadata !877, metadata !878}
!876 = metadata !{i32 786689, metadata !871, metadata !"devPtr", metadata !420, i32 16777454, metadata !284, i32 0, i32 0} ; [ DW_TAG_arg_variable ] [devPtr] [line 238]
!877 = metadata !{i32 786689, metadata !871, metadata !"value", metadata !420, i32 33554670, metadata !11, i32 0, i32 0} ; [ DW_TAG_arg_variable ] [value] [line 238]
!878 = metadata !{i32 786689, metadata !871, metadata !"count", metadata !420, i32 50331886, metadata !436, i32 0, i32 0} ; [ DW_TAG_arg_variable ] [count] [line 238]
!879 = metadata !{i32 786478, i32 0, metadata !420, metadata !"cudaMemset2D", metadata !"cudaMemset2D", metadata !"", metadata !420, i32 243, metadata !880, i1 false, i1 true, i32 0, i32 0, null, i32 256, i1 true, i32 (i8*, i64, i32, i64, i64)* @cudaMems
!880 = metadata !{i32 786453, i32 0, metadata !"", i32 0, i32 0, i64 0, i64 0, i64 0, i32 0, null, metadata !881, i32 0, i32 0} ; [ DW_TAG_subroutine_type ] [line 0, size 0, align 0, offset 0] [from ]
!881 = metadata !{metadata !423, metadata !284, metadata !436, metadata !11, metadata !436, metadata !436}
!882 = metadata !{metadata !883}
!883 = metadata !{metadata !884, metadata !885, metadata !886, metadata !887, metadata !888}
!884 = metadata !{i32 786689, metadata !879, metadata !"devPtr", metadata !420, i32 16777459, metadata !284, i32 0, i32 0} ; [ DW_TAG_arg_variable ] [devPtr] [line 243]
!885 = metadata !{i32 786689, metadata !879, metadata !"pitch", metadata !420, i32 33554675, metadata !436, i32 0, i32 0} ; [ DW_TAG_arg_variable ] [pitch] [line 243]
!886 = metadata !{i32 786689, metadata !879, metadata !"value", metadata !420, i32 50331891, metadata !11, i32 0, i32 0} ; [ DW_TAG_arg_variable ] [value] [line 243]
!887 = metadata !{i32 786689, metadata !879, metadata !"width", metadata !420, i32 67109108, metadata !436, i32 0, i32 0} ; [ DW_TAG_arg_variable ] [width] [line 244]
!888 = metadata !{i32 786689, metadata !879, metadata !"height", metadata !420, i32 83886324, metadata !436, i32 0, i32 0} ; [ DW_TAG_arg_variable ] [height] [line 244]
!889 = metadata !{i32 786478, i32 0, metadata !420, metadata !"cudaMemset2DAsync", metadata !"cudaMemset2DAsync", metadata !"", metadata !420, i32 248, metadata !890, i1 false, i1 true, i32 0, i32 0, null, i32 256, i1 true, i32 (i8*, i64, i32, i64, i64, 
!890 = metadata !{i32 786453, i32 0, metadata !"", i32 0, i32 0, i64 0, i64 0, i64 0, i32 0, null, metadata !891, i32 0, i32 0} ; [ DW_TAG_subroutine_type ] [line 0, size 0, align 0, offset 0] [from ]
!891 = metadata !{metadata !423, metadata !284, metadata !436, metadata !11, metadata !436, metadata !436, metadata !608}
!892 = metadata !{metadata !893}
!893 = metadata !{metadata !894, metadata !895, metadata !896, metadata !897, metadata !898, metadata !899}
!894 = metadata !{i32 786689, metadata !889, metadata !"devPtr", metadata !420, i32 16777464, metadata !284, i32 0, i32 0} ; [ DW_TAG_arg_variable ] [devPtr] [line 248]
!895 = metadata !{i32 786689, metadata !889, metadata !"pitch", metadata !420, i32 33554680, metadata !436, i32 0, i32 0} ; [ DW_TAG_arg_variable ] [pitch] [line 248]
!896 = metadata !{i32 786689, metadata !889, metadata !"value", metadata !420, i32 50331896, metadata !11, i32 0, i32 0} ; [ DW_TAG_arg_variable ] [value] [line 248]
!897 = metadata !{i32 786689, metadata !889, metadata !"width", metadata !420, i32 67109113, metadata !436, i32 0, i32 0} ; [ DW_TAG_arg_variable ] [width] [line 249]
!898 = metadata !{i32 786689, metadata !889, metadata !"height", metadata !420, i32 83886329, metadata !436, i32 0, i32 0} ; [ DW_TAG_arg_variable ] [height] [line 249]
!899 = metadata !{i32 786689, metadata !889, metadata !"stream", metadata !420, i32 100663545, metadata !608, i32 0, i32 0} ; [ DW_TAG_arg_variable ] [stream] [line 249]
!900 = metadata !{i32 786478, i32 0, metadata !420, metadata !"cudaMemset3D", metadata !"cudaMemset3D", metadata !"", metadata !420, i32 253, metadata !901, i1 false, i1 true, i32 0, i32 0, null, i32 256, i1 true, i32 (%struct.cudaPitchedPtr*, i32, %stru
!901 = metadata !{i32 786453, i32 0, metadata !"", i32 0, i32 0, i64 0, i64 0, i64 0, i32 0, null, metadata !902, i32 0, i32 0} ; [ DW_TAG_subroutine_type ] [line 0, size 0, align 0, offset 0] [from ]
!902 = metadata !{metadata !423, metadata !526, metadata !11, metadata !433}
!903 = metadata !{metadata !904}
!904 = metadata !{metadata !905, metadata !906, metadata !907}
!905 = metadata !{i32 786689, metadata !900, metadata !"pitchedDevPtr", metadata !420, i32 16777469, metadata !526, i32 0, i32 0} ; [ DW_TAG_arg_variable ] [pitchedDevPtr] [line 253]
!906 = metadata !{i32 786689, metadata !900, metadata !"value", metadata !420, i32 33554685, metadata !11, i32 0, i32 0} ; [ DW_TAG_arg_variable ] [value] [line 253]
!907 = metadata !{i32 786689, metadata !900, metadata !"extent", metadata !420, i32 50331902, metadata !433, i32 0, i32 0} ; [ DW_TAG_arg_variable ] [extent] [line 254]
!908 = metadata !{i32 786478, i32 0, metadata !420, metadata !"cudaMemset3DAsync", metadata !"cudaMemset3DAsync", metadata !"", metadata !420, i32 258, metadata !909, i1 false, i1 true, i32 0, i32 0, null, i32 256, i1 true, i32 (%struct.cudaPitchedPtr*, 
!909 = metadata !{i32 786453, i32 0, metadata !"", i32 0, i32 0, i64 0, i64 0, i64 0, i32 0, null, metadata !910, i32 0, i32 0} ; [ DW_TAG_subroutine_type ] [line 0, size 0, align 0, offset 0] [from ]
!910 = metadata !{metadata !423, metadata !526, metadata !11, metadata !433, metadata !608}
!911 = metadata !{metadata !912}
!912 = metadata !{metadata !913, metadata !914, metadata !915, metadata !916}
!913 = metadata !{i32 786689, metadata !908, metadata !"pitchedDevPtr", metadata !420, i32 16777474, metadata !526, i32 0, i32 0} ; [ DW_TAG_arg_variable ] [pitchedDevPtr] [line 258]
!914 = metadata !{i32 786689, metadata !908, metadata !"value", metadata !420, i32 33554690, metadata !11, i32 0, i32 0} ; [ DW_TAG_arg_variable ] [value] [line 258]
!915 = metadata !{i32 786689, metadata !908, metadata !"extent", metadata !420, i32 50331907, metadata !433, i32 0, i32 0} ; [ DW_TAG_arg_variable ] [extent] [line 259]
!916 = metadata !{i32 786689, metadata !908, metadata !"stream", metadata !420, i32 67109123, metadata !608, i32 0, i32 0} ; [ DW_TAG_arg_variable ] [stream] [line 259]
!917 = metadata !{i32 786478, i32 0, metadata !420, metadata !"cudaMemsetAsync", metadata !"cudaMemsetAsync", metadata !"", metadata !420, i32 263, metadata !918, i1 false, i1 true, i32 0, i32 0, null, i32 256, i1 true, i32 (i8*, i32, i64, %struct.CUstre
!918 = metadata !{i32 786453, i32 0, metadata !"", i32 0, i32 0, i64 0, i64 0, i64 0, i32 0, null, metadata !919, i32 0, i32 0} ; [ DW_TAG_subroutine_type ] [line 0, size 0, align 0, offset 0] [from ]
!919 = metadata !{metadata !423, metadata !284, metadata !11, metadata !436, metadata !608}
!920 = metadata !{metadata !921}
!921 = metadata !{metadata !922, metadata !923, metadata !924, metadata !925}
!922 = metadata !{i32 786689, metadata !917, metadata !"devPtr", metadata !420, i32 16777479, metadata !284, i32 0, i32 0} ; [ DW_TAG_arg_variable ] [devPtr] [line 263]
!923 = metadata !{i32 786689, metadata !917, metadata !"value", metadata !420, i32 33554695, metadata !11, i32 0, i32 0} ; [ DW_TAG_arg_variable ] [value] [line 263]
!924 = metadata !{i32 786689, metadata !917, metadata !"count", metadata !420, i32 50331911, metadata !436, i32 0, i32 0} ; [ DW_TAG_arg_variable ] [count] [line 263]
!925 = metadata !{i32 786689, metadata !917, metadata !"stream", metadata !420, i32 67109127, metadata !608, i32 0, i32 0} ; [ DW_TAG_arg_variable ] [stream] [line 263]
!926 = metadata !{i32 19, i32 0, metadata !18, null}
!927 = metadata !{i32 21, i32 0, metadata !21, null}
!928 = metadata !{i32 22, i32 0, metadata !21, null}
!929 = metadata !{metadata !"float", metadata !930}
!930 = metadata !{metadata !"omnipotent char", metadata !931}
!931 = metadata !{metadata !"Simple C/C++ TBAA"}
!932 = metadata !{i32 25, i32 0, metadata !23, null}
!933 = metadata !{i32 28, i32 0, metadata !25, null}
!934 = metadata !{i32 31, i32 0, metadata !28, null}
!935 = metadata !{i32 33, i32 0, metadata !30, null}
!936 = metadata !{i32 34, i32 0, metadata !30, null}
!937 = metadata !{i32 36, i32 0, metadata !30, null}
!938 = metadata !{i32 37, i32 0, metadata !30, null}
!939 = metadata !{i32 38, i32 0, metadata !30, null}
!940 = metadata !{i32 39, i32 0, metadata !30, null}
!941 = metadata !{i32 42, i32 0, metadata !18, null}
!942 = metadata !{i32 52, i32 0, metadata !41, null}
!943 = metadata !{i32 54, i32 0, metadata !43, null}
!944 = metadata !{i32 58, i32 0, metadata !48, null}
!945 = metadata !{i32 63, i32 0, metadata !52, null}
!946 = metadata !{i32 64, i32 0, metadata !52, null}
!947 = metadata !{i32 66, i32 0, metadata !50, null}
!948 = metadata !{i32 69, i32 0, metadata !45, null}
!949 = metadata !{i32 71, i32 0, metadata !41, null}
!950 = metadata !{i32 87, i32 0, metadata !64, null}
!951 = metadata !{i32 88, i32 0, metadata !64, null}
!952 = metadata !{i32 90, i32 0, metadata !67, null}
!953 = metadata !{i32 94, i32 0, metadata !71, null}
!954 = metadata !{i32 97, i32 0, metadata !69, null}
!955 = metadata !{i32 95, i32 0, metadata !71, null}
!956 = metadata !{i32 99, i32 0, metadata !64, null}
!957 = metadata !{i32 38, i32 0, metadata !93, null}
!958 = metadata !{i32 39, i32 0, metadata !93, null}
!959 = metadata !{metadata !"int", metadata !930}
!960 = metadata !{i32 42, i32 0, metadata !93, null}
!961 = metadata !{i32 45, i32 0, metadata !98, null}
!962 = metadata !{i32 47, i32 0, metadata !963, null}
!963 = metadata !{i32 786443, metadata !98, i32 46, i32 0, metadata !86, i32 2} ; [ DW_TAG_lexical_block ] [/home/sawaya/Gklee/GkleeTests/SESABench/Table-1-CUDA-5.5/fastWalshTransform/fastWalshTransform.cpp]
!964 = metadata !{i32 53, i32 0, metadata !101, null}
!965 = metadata !{i32 55, i32 0, metadata !103, null}
!966 = metadata !{i32 56, i32 0, metadata !103, null}
!967 = metadata !{i32 57, i32 0, metadata !103, null}
!968 = metadata !{i32 58, i32 0, metadata !103, null}
!969 = metadata !{i32 59, i32 0, metadata !103, null}
!970 = metadata !{i32 61, i32 0, metadata !103, null}
!971 = metadata !{i32 62, i32 0, metadata !103, null}
!972 = metadata !{i32 63, i32 0, metadata !103, null}
!973 = metadata !{i32 64, i32 0, metadata !103, null}
!974 = metadata !{i32 65, i32 0, metadata !103, null}
!975 = metadata !{i32 69, i32 0, metadata !103, null}
!976 = metadata !{i32 70, i32 0, metadata !103, null}
!977 = metadata !{i32 72, i32 0, metadata !103, null}
!978 = metadata !{i32 73, i32 0, metadata !103, null}
!979 = metadata !{i32 75, i32 0, metadata !103, null}
!980 = metadata !{i32 76, i32 0, metadata !103, null}
!981 = metadata !{i32 78, i32 0, metadata !103, null}
!982 = metadata !{i32 79, i32 0, metadata !103, null}
!983 = metadata !{i32 83, i32 0, metadata !93, null}
!984 = metadata !{i32 85, i32 0, metadata !115, null}
!985 = metadata !{i32 87, i32 0, metadata !114, null}
!986 = metadata !{i32 89, i32 0, metadata !117, null}
!987 = metadata !{i32 90, i32 0, metadata !117, null}
!988 = metadata !{i32 92, i32 0, metadata !117, null}
!989 = metadata !{i32 93, i32 0, metadata !117, null}
!990 = metadata !{i32 94, i32 0, metadata !117, null}
!991 = metadata !{i32 95, i32 0, metadata !117, null}
!992 = metadata !{i32 99, i32 0, metadata !93, null}
!993 = metadata !{i32 101, i32 0, metadata !122, null}
!994 = metadata !{i32 103, i32 0, metadata !995, null}
!995 = metadata !{i32 786443, metadata !122, i32 102, i32 0, metadata !86, i32 9} ; [ DW_TAG_lexical_block ] [/home/sawaya/Gklee/GkleeTests/SESABench/Table-1-CUDA-5.5/fastWalshTransform/fastWalshTransform.cpp]
!996 = metadata !{i32 105, i32 0, metadata !93, null}
!997 = metadata !{i32 117, i32 0, metadata !130, null}
!998 = metadata !{i32 118, i32 0, metadata !130, null}
!999 = metadata !{i32 120, i32 0, metadata !130, null}
!1000 = metadata !{i32 123, i32 0, metadata !130, null}
!1001 = metadata !{i32 124, i32 0, metadata !130, null}
!1002 = metadata !{i32 125, i32 0, metadata !130, null}
!1003 = metadata !{i32 126, i32 0, metadata !130, null}
!1004 = metadata !{i32 127, i32 0, metadata !130, null}
!1005 = metadata !{i32 129, i32 0, metadata !130, null}
!1006 = metadata !{i32 130, i32 0, metadata !130, null}
!1007 = metadata !{i32 131, i32 0, metadata !130, null}
!1008 = metadata !{i32 132, i32 0, metadata !130, null}
!1009 = metadata !{i32 136, i32 0, metadata !130, null}
!1010 = metadata !{i32 137, i32 0, metadata !130, null}
!1011 = metadata !{i32 139, i32 0, metadata !130, null}
!1012 = metadata !{i32 140, i32 0, metadata !130, null}
!1013 = metadata !{i32 142, i32 0, metadata !130, null}
!1014 = metadata !{i32 143, i32 0, metadata !130, null}
!1015 = metadata !{i32 145, i32 0, metadata !130, null}
!1016 = metadata !{i32 146, i32 0, metadata !130, null}
!1017 = metadata !{i32 147, i32 0, metadata !130, null}
!1018 = metadata !{i32 156, i32 0, metadata !153, null}
!1019 = metadata !{i32 157, i32 0, metadata !153, null}
!1020 = metadata !{i32 419, i32 0, metadata !249, metadata !1021}
!1021 = metadata !{i32 419, i32 0, metadata !241, metadata !1019}
!1022 = metadata !{i32 159, i32 0, metadata !1023, null}
!1023 = metadata !{i32 786443, metadata !153, i32 159, i32 0, metadata !86, i32 12} ; [ DW_TAG_lexical_block ] [/home/sawaya/Gklee/GkleeTests/SESABench/Table-1-CUDA-5.5/fastWalshTransform/fastWalshTransform.cpp]
!1024 = metadata !{i32 161, i32 0, metadata !1025, null}
!1025 = metadata !{i32 786443, metadata !1026, i32 161, i32 0, metadata !86, i32 14} ; [ DW_TAG_lexical_block ] [/home/sawaya/Gklee/GkleeTests/SESABench/Table-1-CUDA-5.5/fastWalshTransform/fastWalshTransform.cpp]
!1026 = metadata !{i32 786443, metadata !1023, i32 160, i32 0, metadata !86, i32 13} ; [ DW_TAG_lexical_block ] [/home/sawaya/Gklee/GkleeTests/SESABench/Table-1-CUDA-5.5/fastWalshTransform/fastWalshTransform.cpp]
!1027 = metadata !{i32 163, i32 0, metadata !1025, null}
!1028 = metadata !{i32 166, i32 0, metadata !1026, null}
!1029 = metadata !{i32 419, i32 0, metadata !249, metadata !1030}
!1030 = metadata !{i32 419, i32 0, metadata !241, metadata !1031}
!1031 = metadata !{i32 170, i32 0, metadata !1032, null}
!1032 = metadata !{i32 786443, metadata !153, i32 168, i32 0, metadata !86, i32 15} ; [ DW_TAG_lexical_block ] [/home/sawaya/Gklee/GkleeTests/SESABench/Table-1-CUDA-5.5/fastWalshTransform/fastWalshTransform.cpp]
!1033 = metadata !{i32 174, i32 0, metadata !1032, null}
!1034 = metadata !{i32 181, i32 0, metadata !153, null}
!1035 = metadata !{i32 182, i32 0, metadata !153, null}
!1036 = metadata !{i32 191, i32 0, metadata !206, null}
!1037 = metadata !{i32 192, i32 0, metadata !206, null}
!1038 = metadata !{i32 193, i32 0, metadata !206, null}
!1039 = metadata !{i32 195, i32 0, metadata !210, null}
!1040 = metadata !{i32 197, i32 0, metadata !1041, null}
!1041 = metadata !{i32 786443, metadata !210, i32 196, i32 0, metadata !86, i32 18} ; [ DW_TAG_lexical_block ] [/home/sawaya/Gklee/GkleeTests/SESABench/Table-1-CUDA-5.5/fastWalshTransform/fastWalshTransform.cpp]
!1042 = metadata !{i32 199, i32 0, metadata !206, null}
!1043 = metadata !{i32 204, i32 0, metadata !1044, null}
!1044 = metadata !{i32 786443, metadata !1045, i32 204, i32 0, metadata !86, i32 20} ; [ DW_TAG_lexical_block ] [/home/sawaya/Gklee/GkleeTests/SESABench/Table-1-CUDA-5.5/fastWalshTransform/fastWalshTransform.cpp]
!1045 = metadata !{i32 786443, metadata !211, i32 203, i32 0, metadata !86, i32 19} ; [ DW_TAG_lexical_block ] [/home/sawaya/Gklee/GkleeTests/SESABench/Table-1-CUDA-5.5/fastWalshTransform/fastWalshTransform.cpp]
!1046 = metadata !{i32 206, i32 0, metadata !1044, null}
!1047 = metadata !{i32 208, i32 0, metadata !1045, null}
!1048 = metadata !{i32 247, i32 0, metadata !228, null}
!1049 = metadata !{metadata !"any pointer", metadata !930}
!1050 = metadata !{i32 254, i32 0, metadata !228, null}
!1051 = metadata !{i32 255, i32 0, metadata !228, null}
!1052 = metadata !{i32 256, i32 0, metadata !228, null}
!1053 = metadata !{i32 257, i32 0, metadata !228, null}
!1054 = metadata !{i32 259, i32 0, metadata !228, null}
!1055 = metadata !{i32 260, i32 0, metadata !228, null}
!1056 = metadata !{i32 263, i32 0, metadata !228, null}
!1057 = metadata !{i32 264, i32 0, metadata !228, null}
!1058 = metadata !{i32 266, i32 0, metadata !228, null}
!1059 = metadata !{i32 267, i32 0, metadata !228, null}
!1060 = metadata !{i32 272, i32 0, metadata !228, null}
!1061 = metadata !{i32 274, i32 0, metadata !1062, null}
!1062 = metadata !{i32 786443, metadata !228, i32 274, i32 0, metadata !86, i32 22} ; [ DW_TAG_lexical_block ] [/home/sawaya/Gklee/GkleeTests/SESABench/Table-1-CUDA-5.5/fastWalshTransform/fastWalshTransform.cpp]
!1063 = metadata !{i32 279, i32 0, metadata !1064, null}
!1064 = metadata !{i32 786443, metadata !228, i32 279, i32 0, metadata !86, i32 24} ; [ DW_TAG_lexical_block ] [/home/sawaya/Gklee/GkleeTests/SESABench/Table-1-CUDA-5.5/fastWalshTransform/fastWalshTransform.cpp]
!1065 = metadata !{i32 276, i32 0, metadata !1066, null}
!1066 = metadata !{i32 786443, metadata !1062, i32 275, i32 0, metadata !86, i32 23} ; [ DW_TAG_lexical_block ] [/home/sawaya/Gklee/GkleeTests/SESABench/Table-1-CUDA-5.5/fastWalshTransform/fastWalshTransform.cpp]
!1067 = metadata !{i32 281, i32 0, metadata !1068, null}
!1068 = metadata !{i32 786443, metadata !1064, i32 280, i32 0, metadata !86, i32 25} ; [ DW_TAG_lexical_block ] [/home/sawaya/Gklee/GkleeTests/SESABench/Table-1-CUDA-5.5/fastWalshTransform/fastWalshTransform.cpp]
!1069 = metadata !{i32 288, i32 0, metadata !228, null}
!1070 = metadata !{i32 289, i32 0, metadata !228, null}
!1071 = metadata !{i32 290, i32 0, metadata !228, null}
!1072 = metadata !{i32 292, i32 0, metadata !228, null}
!1073 = metadata !{i32 296, i32 0, metadata !228, null}
!1074 = metadata !{i32 297, i32 0, metadata !228, null}
!1075 = metadata !{i32 298, i32 0, metadata !228, null}
!1076 = metadata !{i32 204, i32 0, metadata !1044, metadata !1075}
!1077 = metadata !{i32 206, i32 0, metadata !1044, metadata !1075}
!1078 = metadata !{i32 299, i32 0, metadata !228, null}
!1079 = metadata !{i32 303, i32 0, metadata !228, null}
!1080 = metadata !{i32 305, i32 0, metadata !228, null}
!1081 = metadata !{i32 307, i32 0, metadata !228, null}
!1082 = metadata !{i32 309, i32 0, metadata !228, null}
!1083 = metadata !{i32 312, i32 0, metadata !228, null}
!1084 = metadata !{i32 318, i32 0, metadata !228, null}
!1085 = metadata !{i32 320, i32 0, metadata !228, null}
!1086 = metadata !{i32 324, i32 0, metadata !228, null}
!1087 = metadata !{i32 325, i32 0, metadata !228, null}
!1088 = metadata !{i32 326, i32 0, metadata !228, null}
!1089 = metadata !{i32 328, i32 0, metadata !228, null}
!1090 = metadata !{i32 329, i32 0, metadata !228, null}
!1091 = metadata !{i32 332, i32 0, metadata !228, null}
!1092 = metadata !{i32 333, i32 0, metadata !228, null}
!1093 = metadata !{i32 334, i32 0, metadata !228, null}
!1094 = metadata !{i32 13, i32 0, metadata !1095, null}
!1095 = metadata !{i32 786443, metadata !269, i32 12, i32 0, metadata !270, i32 0} ; [ DW_TAG_lexical_block ] [/home/sawaya/Gklee/build/Gklee/runtime/Intrinsic//home/sawaya/Gklee/Gklee/runtime/Intrinsic/klee_div_zero_check.c]
!1096 = metadata !{i32 14, i32 0, metadata !1095, null}
!1097 = metadata !{i32 15, i32 0, metadata !1095, null}
!1098 = metadata !{i32 16, i32 0, metadata !295, null}
!1099 = metadata !{i32 17, i32 0, metadata !295, null}
!1100 = metadata !{i32 18, i32 0, metadata !295, null}
!1101 = metadata !{i32 14, i32 0, metadata !329, null}
!1102 = metadata !{i32 15, i32 0, metadata !329, null}
!1103 = metadata !{i32 16, i32 0, metadata !329, null}
!1104 = metadata !{i32 26, i32 0, metadata !1105, null}
!1105 = metadata !{i32 786443, metadata !419, i32 25, i32 0, metadata !420, i32 0} ; [ DW_TAG_lexical_block ] [/home/sawaya/Gklee/build/Gklee/runtime/CudaRuntime//home/sawaya/Gklee/Gklee/runtime/CudaRuntime/cudaMemManage.cpp]
!1106 = metadata !{i32 30, i32 0, metadata !1107, null}
!1107 = metadata !{i32 786443, metadata !448, i32 29, i32 0, metadata !420, i32 1} ; [ DW_TAG_lexical_block ] [/home/sawaya/Gklee/build/Gklee/runtime/CudaRuntime//home/sawaya/Gklee/Gklee/runtime/CudaRuntime/cudaMemManage.cpp]
!1108 = metadata !{i32 31, i32 0, metadata !1107, null}
!1109 = metadata !{i32 35, i32 0, metadata !1110, null}
!1110 = metadata !{i32 786443, metadata !454, i32 34, i32 0, metadata !420, i32 2} ; [ DW_TAG_lexical_block ] [/home/sawaya/Gklee/build/Gklee/runtime/CudaRuntime//home/sawaya/Gklee/Gklee/runtime/CudaRuntime/cudaMemManage.cpp]
!1111 = metadata !{i32 36, i32 0, metadata !1110, null}
!1112 = metadata !{i32 40, i32 0, metadata !1113, null}
!1113 = metadata !{i32 786443, metadata !460, i32 39, i32 0, metadata !420, i32 3} ; [ DW_TAG_lexical_block ] [/home/sawaya/Gklee/build/Gklee/runtime/CudaRuntime//home/sawaya/Gklee/Gklee/runtime/CudaRuntime/cudaMemManage.cpp]
!1114 = metadata !{i32 41, i32 0, metadata !1113, null}
!1115 = metadata !{i32 45, i32 0, metadata !1116, null}
!1116 = metadata !{i32 786443, metadata !464, i32 44, i32 0, metadata !420, i32 4} ; [ DW_TAG_lexical_block ] [/home/sawaya/Gklee/build/Gklee/runtime/CudaRuntime//home/sawaya/Gklee/Gklee/runtime/CudaRuntime/cudaMemManage.cpp]
!1117 = metadata !{i32 49, i32 0, metadata !1118, null}
!1118 = metadata !{i32 786443, metadata !472, i32 48, i32 0, metadata !420, i32 5} ; [ DW_TAG_lexical_block ] [/home/sawaya/Gklee/build/Gklee/runtime/CudaRuntime//home/sawaya/Gklee/Gklee/runtime/CudaRuntime/cudaMemManage.cpp]
!1119 = metadata !{i32 53, i32 0, metadata !1120, null}
!1120 = metadata !{i32 786443, metadata !480, i32 52, i32 0, metadata !420, i32 6} ; [ DW_TAG_lexical_block ] [/home/sawaya/Gklee/build/Gklee/runtime/CudaRuntime//home/sawaya/Gklee/Gklee/runtime/CudaRuntime/cudaMemManage.cpp]
!1121 = metadata !{i32 57, i32 0, metadata !1122, null}
!1122 = metadata !{i32 786443, metadata !488, i32 56, i32 0, metadata !420, i32 7} ; [ DW_TAG_lexical_block ] [/home/sawaya/Gklee/build/Gklee/runtime/CudaRuntime//home/sawaya/Gklee/Gklee/runtime/CudaRuntime/cudaMemManage.cpp]
!1123 = metadata !{i32 61, i32 0, metadata !1124, null}
!1124 = metadata !{i32 786443, metadata !496, i32 60, i32 0, metadata !420, i32 8} ; [ DW_TAG_lexical_block ] [/home/sawaya/Gklee/build/Gklee/runtime/CudaRuntime//home/sawaya/Gklee/Gklee/runtime/CudaRuntime/cudaMemManage.cpp]
!1125 = metadata !{i32 65, i32 0, metadata !1126, null}
!1126 = metadata !{i32 786443, metadata !503, i32 64, i32 0, metadata !420, i32 9} ; [ DW_TAG_lexical_block ] [/home/sawaya/Gklee/build/Gklee/runtime/CudaRuntime//home/sawaya/Gklee/Gklee/runtime/CudaRuntime/cudaMemManage.cpp]
!1127 = metadata !{i32 69, i32 0, metadata !1128, null}
!1128 = metadata !{i32 786443, metadata !511, i32 68, i32 0, metadata !420, i32 10} ; [ DW_TAG_lexical_block ] [/home/sawaya/Gklee/build/Gklee/runtime/CudaRuntime//home/sawaya/Gklee/Gklee/runtime/CudaRuntime/cudaMemManage.cpp]
!1129 = metadata !{i32 73, i32 0, metadata !1130, null}
!1130 = metadata !{i32 786443, metadata !515, i32 72, i32 0, metadata !420, i32 11} ; [ DW_TAG_lexical_block ] [/home/sawaya/Gklee/build/Gklee/runtime/CudaRuntime//home/sawaya/Gklee/Gklee/runtime/CudaRuntime/cudaMemManage.cpp]
!1131 = metadata !{i32 74, i32 0, metadata !1130, null}
!1132 = metadata !{i32 75, i32 0, metadata !1130, null}
!1133 = metadata !{i32 77, i32 0, metadata !1130, null}
!1134 = metadata !{i32 81, i32 0, metadata !1135, null}
!1135 = metadata !{i32 786443, metadata !522, i32 80, i32 0, metadata !420, i32 12} ; [ DW_TAG_lexical_block ] [/home/sawaya/Gklee/build/Gklee/runtime/CudaRuntime//home/sawaya/Gklee/Gklee/runtime/CudaRuntime/cudaMemManage.cpp]
!1136 = metadata !{i32 86, i32 0, metadata !1137, null}
!1137 = metadata !{i32 786443, metadata !536, i32 85, i32 0, metadata !420, i32 13} ; [ DW_TAG_lexical_block ] [/home/sawaya/Gklee/build/Gklee/runtime/CudaRuntime//home/sawaya/Gklee/Gklee/runtime/CudaRuntime/cudaMemManage.cpp]
!1138 = metadata !{i32 91, i32 0, metadata !1139, null}
!1139 = metadata !{i32 786443, metadata !546, i32 90, i32 0, metadata !420, i32 14} ; [ DW_TAG_lexical_block ] [/home/sawaya/Gklee/build/Gklee/runtime/CudaRuntime//home/sawaya/Gklee/Gklee/runtime/CudaRuntime/cudaMemManage.cpp]
!1140 = metadata !{i32 95, i32 0, metadata !1141, null}
!1141 = metadata !{i32 786443, metadata !556, i32 94, i32 0, metadata !420, i32 15} ; [ DW_TAG_lexical_block ] [/home/sawaya/Gklee/build/Gklee/runtime/CudaRuntime//home/sawaya/Gklee/Gklee/runtime/CudaRuntime/cudaMemManage.cpp]
!1142 = metadata !{i32 96, i32 0, metadata !1141, null}
!1143 = metadata !{i32 97, i32 0, metadata !1141, null}
!1144 = metadata !{i32 99, i32 0, metadata !1141, null}
!1145 = metadata !{i32 103, i32 0, metadata !1146, null}
!1146 = metadata !{i32 786443, metadata !561, i32 102, i32 0, metadata !420, i32 16} ; [ DW_TAG_lexical_block ] [/home/sawaya/Gklee/build/Gklee/runtime/CudaRuntime//home/sawaya/Gklee/Gklee/runtime/CudaRuntime/cudaMemManage.cpp]
!1147 = metadata !{i32 108, i32 0, metadata !1148, null}
!1148 = metadata !{i32 786443, metadata !570, i32 106, i32 0, metadata !420, i32 17} ; [ DW_TAG_lexical_block ] [/home/sawaya/Gklee/build/Gklee/runtime/CudaRuntime//home/sawaya/Gklee/Gklee/runtime/CudaRuntime/cudaMemManage.cpp]
!1149 = metadata !{i32 113, i32 0, metadata !1150, null}
!1150 = metadata !{i32 786443, metadata !579, i32 112, i32 0, metadata !420, i32 18} ; [ DW_TAG_lexical_block ] [/home/sawaya/Gklee/build/Gklee/runtime/CudaRuntime//home/sawaya/Gklee/Gklee/runtime/CudaRuntime/cudaMemManage.cpp]
!1151 = metadata !{i32 119, i32 0, metadata !1152, null}
!1152 = metadata !{i32 786443, metadata !591, i32 118, i32 0, metadata !420, i32 19} ; [ DW_TAG_lexical_block ] [/home/sawaya/Gklee/build/Gklee/runtime/CudaRuntime//home/sawaya/Gklee/Gklee/runtime/CudaRuntime/cudaMemManage.cpp]
!1153 = metadata !{i32 125, i32 0, metadata !1154, null}
!1154 = metadata !{i32 786443, metadata !605, i32 124, i32 0, metadata !420, i32 20} ; [ DW_TAG_lexical_block ] [/home/sawaya/Gklee/build/Gklee/runtime/CudaRuntime//home/sawaya/Gklee/Gklee/runtime/CudaRuntime/cudaMemManage.cpp]
!1155 = metadata !{i32 131, i32 0, metadata !1156, null}
!1156 = metadata !{i32 786443, metadata !621, i32 130, i32 0, metadata !420, i32 21} ; [ DW_TAG_lexical_block ] [/home/sawaya/Gklee/build/Gklee/runtime/CudaRuntime//home/sawaya/Gklee/Gklee/runtime/CudaRuntime/cudaMemManage.cpp]
!1157 = metadata !{i32 137, i32 0, metadata !1158, null}
!1158 = metadata !{i32 786443, metadata !634, i32 136, i32 0, metadata !420, i32 22} ; [ DW_TAG_lexical_block ] [/home/sawaya/Gklee/build/Gklee/runtime/CudaRuntime//home/sawaya/Gklee/Gklee/runtime/CudaRuntime/cudaMemManage.cpp]
!1159 = metadata !{i32 143, i32 0, metadata !1160, null}
!1160 = metadata !{i32 786443, metadata !648, i32 142, i32 0, metadata !420, i32 23} ; [ DW_TAG_lexical_block ] [/home/sawaya/Gklee/build/Gklee/runtime/CudaRuntime//home/sawaya/Gklee/Gklee/runtime/CudaRuntime/cudaMemManage.cpp]
!1161 = metadata !{i32 149, i32 0, metadata !1162, null}
!1162 = metadata !{i32 786443, metadata !661, i32 148, i32 0, metadata !420, i32 24} ; [ DW_TAG_lexical_block ] [/home/sawaya/Gklee/build/Gklee/runtime/CudaRuntime//home/sawaya/Gklee/Gklee/runtime/CudaRuntime/cudaMemManage.cpp]
!1163 = metadata !{i32 153, i32 0, metadata !1164, null}
!1164 = metadata !{i32 786443, metadata !675, i32 152, i32 0, metadata !420, i32 25} ; [ DW_TAG_lexical_block ] [/home/sawaya/Gklee/build/Gklee/runtime/CudaRuntime//home/sawaya/Gklee/Gklee/runtime/CudaRuntime/cudaMemManage.cpp]
!1165 = metadata !{i32 157, i32 0, metadata !1166, null}
!1166 = metadata !{i32 786443, metadata !699, i32 156, i32 0, metadata !420, i32 26} ; [ DW_TAG_lexical_block ] [/home/sawaya/Gklee/build/Gklee/runtime/CudaRuntime//home/sawaya/Gklee/Gklee/runtime/CudaRuntime/cudaMemManage.cpp]
!1167 = metadata !{i32 161, i32 0, metadata !1168, null}
!1168 = metadata !{i32 786443, metadata !706, i32 160, i32 0, metadata !420, i32 27} ; [ DW_TAG_lexical_block ] [/home/sawaya/Gklee/build/Gklee/runtime/CudaRuntime//home/sawaya/Gklee/Gklee/runtime/CudaRuntime/cudaMemManage.cpp]
!1169 = metadata !{i32 165, i32 0, metadata !1170, null}
!1170 = metadata !{i32 786443, metadata !725, i32 164, i32 0, metadata !420, i32 28} ; [ DW_TAG_lexical_block ] [/home/sawaya/Gklee/build/Gklee/runtime/CudaRuntime//home/sawaya/Gklee/Gklee/runtime/CudaRuntime/cudaMemManage.cpp]
!1171 = metadata !{i32 171, i32 0, metadata !1172, null}
!1172 = metadata !{i32 786443, metadata !732, i32 170, i32 0, metadata !420, i32 29} ; [ DW_TAG_lexical_block ] [/home/sawaya/Gklee/build/Gklee/runtime/CudaRuntime//home/sawaya/Gklee/Gklee/runtime/CudaRuntime/cudaMemManage.cpp]
!1173 = metadata !{i32 176, i32 0, metadata !1174, null}
!1174 = metadata !{i32 786443, metadata !745, i32 175, i32 0, metadata !420, i32 30} ; [ DW_TAG_lexical_block ] [/home/sawaya/Gklee/build/Gklee/runtime/CudaRuntime//home/sawaya/Gklee/Gklee/runtime/CudaRuntime/cudaMemManage.cpp]
!1175 = metadata !{i32 181, i32 0, metadata !1176, null}
!1176 = metadata !{i32 786443, metadata !755, i32 180, i32 0, metadata !420, i32 31} ; [ DW_TAG_lexical_block ] [/home/sawaya/Gklee/build/Gklee/runtime/CudaRuntime//home/sawaya/Gklee/Gklee/runtime/CudaRuntime/cudaMemManage.cpp]
!1177 = metadata !{i32 187, i32 0, metadata !1178, null}
!1178 = metadata !{i32 786443, metadata !766, i32 186, i32 0, metadata !420, i32 32} ; [ DW_TAG_lexical_block ] [/home/sawaya/Gklee/build/Gklee/runtime/CudaRuntime//home/sawaya/Gklee/Gklee/runtime/CudaRuntime/cudaMemManage.cpp]
!1179 = metadata !{i32 192, i32 0, metadata !1180, null}
!1180 = metadata !{i32 786443, metadata !778, i32 191, i32 0, metadata !420, i32 33} ; [ DW_TAG_lexical_block ] [/home/sawaya/Gklee/build/Gklee/runtime/CudaRuntime//home/sawaya/Gklee/Gklee/runtime/CudaRuntime/cudaMemManage.cpp]
!1181 = metadata !{i32 198, i32 0, metadata !1182, null}
!1182 = metadata !{i32 786443, metadata !788, i32 197, i32 0, metadata !420, i32 34} ; [ DW_TAG_lexical_block ] [/home/sawaya/Gklee/build/Gklee/runtime/CudaRuntime//home/sawaya/Gklee/Gklee/runtime/CudaRuntime/cudaMemManage.cpp]
!1183 = metadata !{i32 203, i32 0, metadata !1184, null}
!1184 = metadata !{i32 786443, metadata !799, i32 201, i32 0, metadata !420, i32 35} ; [ DW_TAG_lexical_block ] [/home/sawaya/Gklee/build/Gklee/runtime/CudaRuntime//home/sawaya/Gklee/Gklee/runtime/CudaRuntime/cudaMemManage.cpp]
!1185 = metadata !{i32 209, i32 0, metadata !1186, null}
!1186 = metadata !{i32 786443, metadata !809, i32 207, i32 0, metadata !420, i32 36} ; [ DW_TAG_lexical_block ] [/home/sawaya/Gklee/build/Gklee/runtime/CudaRuntime//home/sawaya/Gklee/Gklee/runtime/CudaRuntime/cudaMemManage.cpp]
!1187 = metadata !{i32 214, i32 0, metadata !1188, null}
!1188 = metadata !{i32 786443, metadata !820, i32 213, i32 0, metadata !420, i32 37} ; [ DW_TAG_lexical_block ] [/home/sawaya/Gklee/build/Gklee/runtime/CudaRuntime//home/sawaya/Gklee/Gklee/runtime/CudaRuntime/cudaMemManage.cpp]
!1189 = metadata !{i32 220, i32 0, metadata !1190, null}
!1190 = metadata !{i32 786443, metadata !831, i32 219, i32 0, metadata !420, i32 38} ; [ DW_TAG_lexical_block ] [/home/sawaya/Gklee/build/Gklee/runtime/CudaRuntime//home/sawaya/Gklee/Gklee/runtime/CudaRuntime/cudaMemManage.cpp]
!1191 = metadata !{i32 225, i32 0, metadata !1192, null}
!1192 = metadata !{i32 786443, metadata !843, i32 224, i32 0, metadata !420, i32 39} ; [ DW_TAG_lexical_block ] [/home/sawaya/Gklee/build/Gklee/runtime/CudaRuntime//home/sawaya/Gklee/Gklee/runtime/CudaRuntime/cudaMemManage.cpp]
!1193 = metadata !{i32 226, i32 0, metadata !1192, null}
!1194 = metadata !{i32 231, i32 0, metadata !1195, null}
!1195 = metadata !{i32 786443, metadata !853, i32 230, i32 0, metadata !420, i32 40} ; [ DW_TAG_lexical_block ] [/home/sawaya/Gklee/build/Gklee/runtime/CudaRuntime//home/sawaya/Gklee/Gklee/runtime/CudaRuntime/cudaMemManage.cpp]
!1196 = metadata !{i32 235, i32 0, metadata !1197, null}
!1197 = metadata !{i32 786443, metadata !864, i32 234, i32 0, metadata !420, i32 41} ; [ DW_TAG_lexical_block ] [/home/sawaya/Gklee/build/Gklee/runtime/CudaRuntime//home/sawaya/Gklee/Gklee/runtime/CudaRuntime/cudaMemManage.cpp]
!1198 = metadata !{i32 239, i32 0, metadata !1199, null}
!1199 = metadata !{i32 786443, metadata !871, i32 238, i32 0, metadata !420, i32 42} ; [ DW_TAG_lexical_block ] [/home/sawaya/Gklee/build/Gklee/runtime/CudaRuntime//home/sawaya/Gklee/Gklee/runtime/CudaRuntime/cudaMemManage.cpp]
!1200 = metadata !{i32 240, i32 0, metadata !1199, null}
!1201 = metadata !{i32 245, i32 0, metadata !1202, null}
!1202 = metadata !{i32 786443, metadata !879, i32 244, i32 0, metadata !420, i32 43} ; [ DW_TAG_lexical_block ] [/home/sawaya/Gklee/build/Gklee/runtime/CudaRuntime//home/sawaya/Gklee/Gklee/runtime/CudaRuntime/cudaMemManage.cpp]
!1203 = metadata !{i32 250, i32 0, metadata !1204, null}
!1204 = metadata !{i32 786443, metadata !889, i32 249, i32 0, metadata !420, i32 44} ; [ DW_TAG_lexical_block ] [/home/sawaya/Gklee/build/Gklee/runtime/CudaRuntime//home/sawaya/Gklee/Gklee/runtime/CudaRuntime/cudaMemManage.cpp]
!1205 = metadata !{i32 255, i32 0, metadata !1206, null}
!1206 = metadata !{i32 786443, metadata !900, i32 254, i32 0, metadata !420, i32 45} ; [ DW_TAG_lexical_block ] [/home/sawaya/Gklee/build/Gklee/runtime/CudaRuntime//home/sawaya/Gklee/Gklee/runtime/CudaRuntime/cudaMemManage.cpp]
!1207 = metadata !{i32 260, i32 0, metadata !1208, null}
!1208 = metadata !{i32 786443, metadata !908, i32 259, i32 0, metadata !420, i32 46} ; [ DW_TAG_lexical_block ] [/home/sawaya/Gklee/build/Gklee/runtime/CudaRuntime//home/sawaya/Gklee/Gklee/runtime/CudaRuntime/cudaMemManage.cpp]
!1209 = metadata !{i32 264, i32 0, metadata !1210, null}
!1210 = metadata !{i32 786443, metadata !917, i32 263, i32 0, metadata !420, i32 47} ; [ DW_TAG_lexical_block ] [/home/sawaya/Gklee/build/Gklee/runtime/CudaRuntime//home/sawaya/Gklee/Gklee/runtime/CudaRuntime/cudaMemManage.cpp]
